ccopy_reg
_reconstructor
p0
(csklearn.feature_extraction.dict_vectorizer
DictVectorizer
p1
c__builtin__
object
p2
Ntp3
Rp4
(dp5
S'vocabulary_'
p6
(dp7
S'stock'
p8
I4543
sS'limited'
p9
I3211
sS'Bryce.'
p10
I287
sS'use'
p11
I4965
sS'raining'
p12
I3950
sS'update.'
p13
I4951
sS'resist'
p14
I4116
sS'felt'
p15
I2522
sS'four'
p16
I2634
sS'demanded'
p17
I2126
sS'protest'
p18
I3898
sS'clean-up'
p19
I1795
sS'hanging'
p20
I2774
sS'commandos'
p21
I1847
sS'evermore'
p22
I2420
sS'integrity'
p23
I3021
sS'Until'
p24
I1111
sS'up.'
p25
I4950
sS'Foundation'
p26
I443
sS'co-sponsored'
p27
I1819
sS'Mayerowitz'
p28
I710
sS'Manufacturers'
p29
I693
sS'crises'
p30
I2030
sS'bureaucrats'
p31
I1657
sS'parliament'
p32
I3649
sS'unanswered'
p33
I4892
sS'Corder'
p34
I334
sS'\xe2\x80\x9cYou'
p35
I5263
sS'Belgians'
p36
I248
sS'Western'
p37
I1151
sS'whatsoever'
p38
I5113
sS'under'
p39
I4903
sS'sped'
p40
I4483
sS'pride'
p41
I3837
sS'worrying'
p42
I5166
sS'Successor'
p43
I1029
sS'updated'
p44
I4952
sS'blistering'
p45
I1586
sS'cruising'
p46
I2044
sS'rescue'
p47
I4106
sS'translation'
p48
I4835
sS'regional'
p49
I4035
sS'tears.'
p50
I4691
sS'four-week'
p51
I2635
sS'every'
p52
I2421
sS'propaganda'
p53
I3885
sS'east.'
p54
I2310
sS'funneled'
p55
I2664
sS'affect'
p56
I1260
sS'bringing'
p57
I1639
sS'elevations'
p58
I2338
sS'parachuted'
p59
I3645
sS'Diseases.'
p60
I365
sS'MAS'
p61
I671
sS'objectivity'
p62
I3529
sS'publicly'
p63
I3917
sS'pique'
p64
I3733
sS'wooden'
p65
I5151
sS'cause'
p66
I1723
sS'masFlight'
p67
I3304
sS'problems.'
p68
I3858
sS'companies'
p69
I1861
sS'solution'
p70
I4440
sS'frozen'
p71
I2651
sS'Nasdaq'
p72
I752
sS'Hercules'
p73
I503
sS'red'
p74
I4013
sS'298'
p75
I78
sS'employees'
p76
I2353
sS'Paul'
p77
I812
sS'295'
p78
I77
sS'heading'
p79
I2799
sS'Europeans'
p80
I410
sS'question.'
p81
I3935
sS'force'
p82
I2614
sS'evaluating'
p83
I2411
sS'superiors'
p84
I4617
sS'self-propelled'
p85
I4284
sS'March.'
p86
I697
sS'direct'
p87
I2195
sS'seas.'
p88
I4259
sS'270'
p89
I73
sS'Matthew'
p90
I706
sS'Sidib\xc3\xa9'
p91
I985
sS'attended'
p92
I1468
sS'writing'
p93
I5175
sS'blue'
p94
I1599
sS'change.'
p95
I1745
sS'escaped.'
p96
I2403
sS'hide'
p97
I2830
sS'deliberate'
p98
I2122
sS'Initially'
p99
I535
sS'party.'
p100
I3662
sS'Merkel'
p101
I718
sS'contributed'
p102
I1948
sS'fingers'
p103
I2555
sS'supplied'
p104
I4618
sS'spokesman'
p105
I4495
sS'Grove'
p106
I483
sS'counteraccusations'
p107
I1985
sS'above'
p108
I1190
sS'conduct'
p109
I1903
sS'churches'
p110
I1773
sS'increasing'
p111
I2953
sS'ever'
p112
I2419
sS'told'
p113
I4789
sS'moment,\xe2\x80\x9d'
p114
I3401
sS'deemed'
p115
I2108
sS'million'
p116
I3369
sS'behavior'
p117
I1556
sS'reporter'
p118
I4089
sS'human'
p119
I2887
sS'Church'
p120
I318
sS'drew'
p121
I2287
sS'hundreds'
p122
I2892
sS'followed.'
p123
I2608
sS'met'
p124
I3346
sS'hulk'
p125
I2886
sS'active'
p126
I1230
sS'aftermath'
p127
I1265
sS'quite'
p128
I3942
sS'peaceful'
p129
I3682
sS'referring'
p130
I4020
sS'obtained'
p131
I3534
sS'engine.'
p132
I2373
sS'shipping'
p133
I4337
sS'0.38'
p134
I19
sS'ventures'
p135
I4992
sS'items'
p136
I3081
sS'Tuesday'
p137
I1083
sS'changed'
p138
I1746
sS'completely'
p139
I1871
sS'One.'
p140
I795
sS'Hamas'
p141
I493
sS'Mohd'
p142
I730
sS'Andre'
p143
I197
sS'pieces.'
p144
I3723
sS'analysts'
p145
I1362
sS'smoke'
p146
I4420
sS'stressed'
p147
I4568
sS'armored'
p148
I1422
sS'military'
p149
I3360
sS'mistake'
p150
I3390
sS'changes'
p151
I1747
sS'intrigue'
p152
I3048
sS'hushed'
p153
I2900
sS'NOS'
p154
I748
sS'criticism'
p155
I2034
sS'investigate'
p156
I3051
sS'Russians'
p157
I927
sS'\xe2\x80\x9cso'
p158
I5293
sS'Rather'
p159
I878
sS'Support'
p160
I1035
sS'explained'
p161
I2452
sS'equipment.'
p162
I2393
sS'Relations'
p163
I888
sS'highly'
p164
I2840
sS'brought'
p165
I1646
sS'Also'
p166
I180
sS'livid.'
p167
I3230
sS'pound'
p168
I3800
sS'Health'
p169
I499
sS'KUALA'
p170
I586
sS'separatists,\xe2\x80\x9d'
p171
I4297
sS'Wales'
p172
I1137
sS'counts'
p173
I1996
sS'removal'
p174
I4073
sS'Security'
p175
I959
sS'unit'
p176
I4922
sS'geopolitically'
p177
I2690
sS'plot'
p178
I3758
sS'widely'
p179
I5127
sS'reflected'
p180
I4023
sS'spoke'
p181
I4493
sS'would'
p182
I5169
sS'army'
p183
I1425
sS'likelihood'
p184
I3206
sS'sweater'
p185
I4645
sS'crash.'
p186
I2010
sS'June'
p187
I582
sS'arms'
p188
I1423
sS'insult'
p189
I3013
sS'occupying'
p190
I3537
sS'view,\xe2\x80\x9d'
p191
I5010
sS'TOREZ'
p192
I1043
sS'call'
p193
I1677
sS'therefore'
p194
I4739
sS'use.'
p195
I4966
sS'strike'
p196
I4573
sS'assessment'
p197
I1445
sS'tell'
p198
I4698
sS'used.'
p199
I4968
sS'Recent'
p200
I883
sS'quash'
p201
I3933
sS'higher.'
p202
I2838
sS'Sorting'
p203
I1003
sS'\xe2\x80\x9che'
p204
I5282
sS'Ministry'
p205
I728
sS'clearly'
p206
I1800
sS'sounded'
p207
I4459
sS'aware'
p208
I1490
sS'grief'
p209
I2733
sS'phone'
p210
I3713
sS'regrouping'
p211
I4037
sS'short'
p212
I4354
sS'...'
p213
I17
sS'90'
p214
I134
sS'hold'
p215
I2852
sS'casualties'
p216
I1719
sS'blocking'
p217
I1592
sS'hostile'
p218
I2871
sS'me'
p219
I3315
sS'Crazy'
p220
I342
sS'Meghani'
p221
I716
sS'Videos'
p222
I1127
sS'rifles.'
p223
I4161
sS'rights'
p224
I4163
sS'hunks'
p225
I2894
sS'plunged'
p226
I3761
sS'investors\xe2\x80\x99'
p227
I3061
sS'advocacy'
p228
I1258
sS'theories'
p229
I4734
sS'student.\xe2\x80\x9d'
p230
I4586
sS'sharp'
p231
I4325
sS'EDT'
p232
I382
sS'mortar'
p233
I3418
sS'upscale'
p234
I4957
sS'presenting'
p235
I3821
sS'interview.'
p236
I3044
sS'example'
p237
I2430
sS'path,\xe2\x80\x9d'
p238
I3674
sS'initial'
p239
I2986
sS'Standing'
p240
I1012
sS'impose'
p241
I2928
sS'unilateral'
p242
I4920
sS'indicated'
p243
I2963
sS'MICEX'
p244
I677
sS'rules.'
p245
I4200
sS'Corporation'
p246
I335
sS'artillery'
p247
I1434
sS'Ralph'
p248
I873
sS'watching'
p249
I5075
sS'involve'
p250
I3065
sS'10,000'
p251
I28
sS'Baldor'
p252
I234
sS'woman'
p253
I5147
sS'caution'
p254
I1726
sS'22,000'
p255
I64
sS'jetliner'
p256
I3089
sS'times'
p257
I4781
sS'altitudes'
p258
I1347
sS'limits,\xe2\x80\x9d'
p259
I3214
sS'ceremony'
p260
I1736
sS'serious'
p261
I4301
sS'autonomy'
p262
I1479
sS'end'
p263
I2359
sS'recovery'
p264
I4011
sS'carriers'
p265
I1709
sS'Welsh'
p266
I1148
sS'Journal'
p267
I578
sS'returning'
p268
I4154
sS'point'
p269
I3762
sS'how'
p270
I2881
sS'hot'
p271
I2874
sS'Muslims'
p272
I742
sS'accusations'
p273
I1210
sS'answer'
p274
I1380
sS'gate'
p275
I2679
sS'widespread'
p276
I5129
sS'charging'
p277
I1757
sS'dignified'
p278
I2187
sS'course.'
p279
I1999
sS'A'
p280
I139
sS'badly'
p281
I1503
sS'loose.'
p282
I3254
sS'weapons.'
p283
I5091
sS'Laurent'
p284
I636
sS'assistance.'
p285
I1451
sS'less'
p286
I3187
sS'after'
p287
I1264
sS'hosing'
p288
I2869
sS'damaged'
p289
I2063
sS'demanding'
p290
I2127
sS'1,500'
p291
I24
sS'Will'
p292
I1161
sS'storage'
p293
I4552
sS'Airmen'
p294
I168
sS'victims,\xe2\x80\x9d'
p295
I5004
sS'lax'
p296
I3166
sS'lay'
p297
I3167
sS'involvement'
p298
I3067
sS'Hankins'
p299
I496
sS'president'
p300
I3822
sS'criminals.'
p301
I2029
sS'law'
p302
I3163
sS'Fogh'
p303
I438
sS'outcry'
p304
I3616
sS'suspected'
p305
I4637
sS'severity'
p306
I4316
sS'own'
p307
I3635
sS'All'
p308
I177
sS'separatists.\xe2\x80\x9d'
p309
I4299
sS'attempt'
p310
I1466
sS'effective'
p311
I2324
sS'occasions'
p312
I3536
sS'Civil'
p313
I320
sS'amid'
p314
I1356
sS'Valeant'
p315
I1116
sS'circumventing'
p316
I1777
sS'acknowledged'
p317
I1218
sS'stand-alone'
p318
I4509
sS'Del.'
p319
I358
sS'like'
p320
I3204
sS'still.'
p321
I4542
sS'maintain'
p322
I3275
sS'ultimate'
p323
I4886
sS'Another'
p324
I203
sS'ambulance'
p325
I1355
sS'worst'
p326
I5168
sS'repatriated'
p327
I4081
sS'Beyond'
p328
I255
sS'order'
p329
I3597
sS'operations'
p330
I3584
sS'Even'
p331
I414
sS'Gabriela'
p332
I458
sS'towels'
p333
I4808
sS'office'
p334
I3547
sS'Edith'
p335
I391
sS'over'
p336
I3623
sS'intelligence-gathering'
p337
I3023
sS'\xe2\x80\x9cCertainly,\xe2\x80\x9d'
p338
I5203
sS'expects'
p339
I2446
sS'Filipinos'
p340
I432
sS'awful'
p341
I1494
sS'suspend'
p342
I4639
sS'down.'
p343
I2272
sS'residents'
p344
I4115
sS'rebellion'
p345
I3988
sS'mayor'
p346
I3314
sS'before'
p347
I1547
sS'Posad'
p348
I838
sS'behalf.'
p349
I1555
sS'Abbott'
p350
I148
sS'His'
p351
I507
sS'van\xe2\x80\x99t'
p352
I4979
sS'personal'
p353
I3707
sS'striking'
p354
I4575
sS','
p355
I12
sS'Here'
p356
I504
sS'Fredriksz-Hoogzand'
p357
I449
sS'better'
p358
I1568
sS'shifts'
p359
I4336
sS'provocations'
p360
I3909
sS'vast'
p361
I4984
sS'routine.'
p362
I4191
sS'400'
p363
I102
sS'hidden'
p364
I2829
sS'fin'
p365
I2544
sS'easier'
p366
I2308
sS'then'
p367
I4733
sS'reputations'
p368
I4099
sS'scandalized'
p369
I4235
sS'affected'
p370
I1261
sS'nothing.\xe2\x80\x9d'
p371
I3515
sS'powerful'
p372
I3804
sS'safe'
p373
I4208
sS'Sukhoi-25'
p374
I1031
sS'Thomas'
p375
I1062
sS'break'
p376
I1630
sS'band'
p377
I1508
sS'\xe2\x80\x9cOnly'
p378
I5237
sS'effects'
p379
I2326
sS'they'
p380
I4742
sS'monarch'
p381
I3402
sS'strategic'
p382
I4561
sS'humanity'
p383
I2889
sS'bank'
p384
I1511
sS'units.'
p385
I4926
sS'greater.'
p386
I2730
sS'airports.'
p387
I1312
sS'them'
p388
I4728
sS'\xe2\x80\x9ccan'
p389
I5272
sS'cronyism'
p390
I2036
sS'week.'
p391
I5096
sS'notified'
p392
I3521
sS'saving'
p393
I4228
sS'classified'
p394
I1794
sS'India'
p395
I528
sS'grows'
p396
I2747
sS'Four'
p397
I444
sS'Milan'
p398
I725
sS'reasonable'
p399
I3982
sS'each'
p400
I2301
sS'TALKS'
p401
I1041
sS'370'
p402
I97
sS'denied.'
p403
I2136
sS'higher'
p404
I2837
sS'interfering'
p405
I3034
sS'side'
p406
I4368
sS'Transport'
p407
I1078
sS'luck'
p408
I3268
sS'consolidate'
p409
I1930
sS'Adding'
p410
I152
sS'Fabius'
p411
I421
sS'financial'
p412
I2549
sS'suspended'
p413
I4640
sS'series'
p414
I4300
sS'train'
p415
I4827
sS'crimes'
p416
I2027
sS'SOME'
p417
I940
sS'mangled'
p418
I3291
sS'aide'
p419
I1285
sS'vote'
p420
I5039
sS'member'
p421
I3337
sS'trading'
p422
I4820
sS'victims'
p423
I5003
sS'presumed'
p424
I3831
sS'unexplained'
p425
I4917
sS'seats.'
p426
I4262
sS'revisions'
p427
I4157
sS'prohibitions'
p428
I3875
sS'drove'
p429
I2292
sS'network'
p430
I3479
sS'driving'
p431
I2290
sS'Chancellor'
p432
I308
sS'tried'
p433
I4851
sS'cameras'
p434
I1682
sS'persisted'
p435
I3704
sS'Schilder'
p436
I952
sS'day.'
p437
I2080
sS'encourage'
p438
I2357
sS'unrelated'
p439
I4937
sS'endemic'
p440
I2362
sS'lain'
p441
I3137
sS'got'
p442
I2716
sS'Chatham'
p443
I311
sS'twice'
p444
I4876
sS'provide'
p445
I3902
sS'disputed'
p446
I2234
sS'unpopularity'
p447
I4935
sS'associate'
p448
I1453
sS'\xe2\x80\x9cRemember'
p449
I5242
sS'University'
p450
I1108
sS'threatened'
p451
I4763
sS'little'
p452
I3227
sS'free'
p453
I2641
sS'mourning'
p454
I3428
sS'campaigns'
p455
I1685
sS'small'
p456
I4417
sS'disputes'
p457
I2236
sS'struggle'
p458
I4585
sS'crime.'
p459
I2025
sS'Iran'
p460
I543
sS'hand'
p461
I2768
sS'swimming'
p462
I4648
sS'rebels.'
p463
I3991
sS'\xe2\x80\x9cSome'
p464
I5245
sS'ate'
p465
I1459
sS'Vasilyeva'
p466
I1120
sS'recovering'
p467
I4010
sS'created'
p468
I2015
sS'3.98'
p469
I83
sS'grasses'
p470
I2726
sS'National'
p471
I754
sS'days'
p472
I2081
sS'priorities'
p473
I3843
sS'still-missing'
p474
I4541
sS'festival'
p475
I2524
sS'Embassy'
p476
I400
sS'oppose'
p477
I3587
sS'braggadocio'
p478
I1628
sS'shootdown'
p479
I4347
sS'can\xe2\x80\x99t'
p480
I1690
sS'moving'
p481
I3436
sS'anyway,\xe2\x80\x9d'
p482
I1390
sS'vote.'
p483
I5040
sS'loud'
p484
I3261
sS'prosecutor'
p485
I3891
sS'size'
p486
I4404
sS'17.'
p487
I43
sS'U.K.'
p488
I1091
sS'English-language'
p489
I404
sS'Cooper'
p490
I331
sS'Bridget'
p491
I278
sS'Palestinian'
p492
I808
sS'researcher'
p493
I4109
sS'encouraging'
p494
I2358
sS'thrown'
p495
I4772
sS'Fight'
p496
I430
sS'Brian'
p497
I277
sS'Kyiv'
p498
I622
sS'philosophical'
p499
I3712
sS'radar.'
p500
I3947
sS'relations'
p501
I4047
sS'another'
p502
I1378
sS'grief.'
p503
I2734
sS'AIDS'
p504
I142
sS'thick'
p505
I4745
sS'clarity'
p506
I1792
sS'electronic'
p507
I2335
sS'escalation'
p508
I2402
sS'power.'
p509
I3803
sS'service'
p510
I4303
sS'similarly'
p511
I4385
sS'hearse'
p512
I2805
sS'engagement'
p513
I2371
sS'twisted'
p514
I4879
sS'ruins'
p515
I4196
sS'scene.'
p516
I4242
sS'needed'
p517
I3469
sS'mass-casualty'
p518
I3305
sS'compromise'
p519
I1880
sS'flagging.'
p520
I2571
sS'village'
p521
I5019
sS'Press'
p522
I843
sS'tragic'
p523
I4826
sS'role.'
p524
I4177
sS'ranging'
p525
I3957
sS'damaging'
p526
I2064
sS'Alexander'
p527
I175
sS'backfire'
p528
I1499
sS'murder'
p529
I3441
sS'collapse'
p530
I1827
sS'\xe2\x80\x9cunderlined'
p531
I5302
sS'relative'
p532
I4049
sS'States.'
p533
I1015
sS'NBC\xe2\x80\x99s'
p534
I747
sS'negotiating'
p535
I3472
sS'spotlight.'
p536
I4498
sS'\xe2\x80\x9cLike'
p537
I5225
sS'predictable'
p538
I3812
sS'western'
p539
I5109
sS'was.'
p540
I5072
sS'wasted'
p541
I5073
sS'longer-term'
p542
I3247
sS'him,\xe2\x80\x9d'
p543
I2842
sS'track.'
p544
I4816
sS'horrible'
p545
I2865
sS'begins'
p546
I1551
sS'Poroshenko.'
p547
I836
sS'air-traffic'
p548
I1293
sS'last'
p549
I3149
sS'Canberra'
p550
I301
sS'surrounding'
p551
I4633
sS'Craig'
p552
I340
sS'point-to-point'
p553
I3763
sS'country\xe2\x80\x99s'
p554
I1995
sS'enabled'
p555
I2356
sS'likely'
p556
I3207
sS'air.'
p557
I1294
sS'nations'
p558
I3459
sS'don\xe2\x80\x99t'
p559
I2261
sS'See'
p560
I960
sS'persuade'
p561
I3709
sS'guilt'
p562
I2753
sS'painful'
p563
I3642
sS'Sea'
p564
I957
sS'threadbare'
p565
I4760
sS'feeling'
p566
I2513
sS'solely'
p567
I4437
sS'old.'
p568
I3559
sS'solemn'
p569
I4438
sS'exercise.'
p570
I2438
sS'viewing'
p571
I5014
sS'Chicago'
p572
I313
sS'ran'
p573
I3954
sS'access.'
p574
I1198
sS'mind'
p575
I3370
sS'upset'
p576
I4958
sS'Angela'
p577
I201
sS'sorrow'
p578
I4453
sS'raw'
p579
I3962
sS'well.'
p580
I5104
sS'\xe2\x80\x9cIt\xe2\x80\x99s'
p581
I5222
sS'Gerashenko'
p582
I466
sS'Instead'
p583
I536
sS'seem'
p584
I4275
sS'regulate'
p585
I4040
sS'seek'
p586
I4273
sS'tells'
p587
I4700
sS'that.\xe2\x80\x9d'
p588
I4724
sS'dozen'
p589
I2277
sS'Theo'
p590
I1056
sS'Snizhne.'
p591
I998
sS'horde'
p592
I2864
sS'Flight'
p593
I434
sS'mostly'
p594
I3421
sS'services'
p595
I4304
sS'hauled'
p596
I2790
sS'ensuring'
p597
I2382
sS'responsible'
p598
I4133
sS'Albert'
p599
I174
sS'isolated'
p600
I3073
sS'socio-economic'
p601
I4434
sS'aboard.'
p602
I1188
sS'explanations'
p603
I2455
sS'causing'
p604
I1725
sS'amusing'
p605
I1358
sS'They'
p606
I1060
sS'Asiana'
p607
I216
sS'Ash'
p608
I213
sS'doomed'
p609
I2262
sS'Bank'
p610
I238
sS'Jones'
p611
I571
sS'even'
p612
I2412
sS'nobody'
p613
I3497
sS'incapable'
p614
I2942
sS'established'
p615
I2408
sS'Knight'
p616
I606
sS'air\xe2\x80\x9d'
p617
I1320
sS'tunnels.'
p618
I4868
sS'militaries'
p619
I3357
sS'extending'
p620
I2469
sS'toilet'
p621
I4788
sS'Latin'
p622
I633
sS'long.'
p623
I3244
sS'Dispensing'
p624
I366
sS'organization'
p625
I3601
sS'videoconferences'
p626
I5007
sS'oil'
p627
I3558
sS'Luch'
p628
I659
sS'the'
p629
I4726
sS'GROUND'
p630
I457
sS'I\xe2\x80\x99m'
p631
I557
sS'Nataliya'
p632
I753
sS'Cobra'
p633
I323
sS'stupid'
p634
I4591
sS'episode'
p635
I2390
sS'released'
p636
I4054
sS'alarm'
p637
I1321
sS'devastating'
p638
I2175
sS'flow'
p639
I2592
sS'sanctions.'
p640
I4223
sS'tangible'
p641
I4675
sS'Radoslaw'
p642
I871
sS'competitors'
p643
I1866
sS'points'
p644
I3767
sS'knew'
p645
I3129
sS'Bizhev'
p646
I259
sS'sun'
p647
I4614
sS'man'
p648
I3284
sS'doesn\xe2\x80\x99t'
p649
I2252
sS'responded'
p650
I4126
sS'came'
p651
I1681
sS'saying'
p652
I4231
sS'renewed'
p653
I4077
sS'Tamak'
p654
I1046
sS'Kiev'
p655
I598
sS'O.'
p656
I782
sS'Union'
p657
I1103
sS'meetings'
p658
I3336
sS'Agency'
p659
I162
sS'Twisted'
p660
I1086
sS'ending'
p661
I2363
sS'stringent'
p662
I4577
sS'Darya'
p663
I353
sS'Marks'
p664
I704
sS'twist'
p665
I4878
sS'refusing'
p666
I4028
sS'European'
p667
I409
sS'lessons'
p668
I3190
sS'busy'
p669
I1667
sS'quoted'
p670
I3944
sS'spite'
p671
I4492
sS'explain'
p672
I2451
sS'Republicans'
p673
I894
sS'unrest.'
p674
I4938
sS'vacation'
p675
I4975
sS'life\xe2\x80\x99'
p676
I3202
sS'prison'
p677
I3845
sS'Jordans'
p678
I574
sS'Karachi.'
p679
I588
sS'field.'
p680
I2530
sS'list.\xe2\x80\x9d'
p681
I3220
sS'Others'
p682
I802
sS'Howitzers'
p683
I514
sS'population'
p684
I3778
sS'insufficient.'
p685
I3012
sS'dispatchers'
p686
I2228
sS'anger.'
p687
I1365
sS'wearing'
p688
I5092
sS'do'
p689
I2246
sS'exports'
p690
I2460
sS'Netherlands'
p691
I761
sS'reconstruction'
p692
I4005
sS'campaign,\xe2\x80\x9d'
p693
I1684
sS'sleepy'
p694
I4414
sS'de'
p695
I2084
sS'stop'
p696
I4548
sS'later.'
p697
I3154
sS'preferred'
p698
I3815
sS'justice.'
p699
I3112
sS'altogether'
p700
I1348
sS'report'
p701
I4085
sS'Organization'
p702
I798
sS'Palestinians'
p703
I809
sS'Soviet'
p704
I1006
sS'unfortunately'
p705
I4918
sS'renewal'
p706
I4076
sS'bar'
p707
I1515
sS'Leaders'
p708
I640
sS'countries'
p709
I1989
sS'IHS'
p710
I519
sS'Washington'
p711
I1142
sS'suggested'
p712
I4604
sS'public'
p713
I3916
sS'slaughtered'
p714
I4412
sS'it,\xe2\x80\x9d'
p715
I3079
sS'Americans.'
p716
I188
sS'briefed'
p717
I1633
sS'reporters.'
p718
I4091
sS'ban'
p719
I1507
sS'them.'
p720
I4729
sS'sanctioning'
p721
I4220
sS'boarded'
p722
I1602
sS'Clifford'
p723
I322
sS'headed'
p724
I2798
sS'humanly'
p725
I2890
sS'road.'
p726
I4170
sS'disaster'
p727
I2205
sS'life.'
p728
I3198
sS'way.\xe2\x80\x9d'
p729
I5080
sS'Dnipropetrovsk'
p730
I368
sS'Shirtless'
p731
I981
sS'Gleb'
p732
I471
sS'laughing.'
p733
I3156
sS'checks'
p734
I1760
sS'depends'
p735
I2148
sS'decided'
p736
I2097
sS'fell.'
p737
I2518
sS'Sydney'
p738
I1038
sS'John'
p739
I569
sS'best'
p740
I1567
sS'situation'
p741
I4397
sS'Vissers'
p742
I1130
sS'Indonesian'
p743
I530
sS'said'
p744
I4215
sS'pieces,\xe2\x80\x9d'
p745
I3722
sS'waiting'
p746
I5048
sS'overwhelming.'
p747
I3633
sS'away'
p748
I1491
sS'Lange'
p749
I629
sS'shaved'
p750
I4329
sS'sordid'
p751
I4452
sS'E.U.'
p752
I381
sS'strewn'
p753
I4569
sS'bracing'
p754
I1627
sS'finger'
p755
I2553
sS'cooperation'
p756
I1965
sS'drawn'
p757
I2285
sS'planes.'
p758
I3744
sS'previous'
p759
I3835
sS'approach'
p760
I1405
sS'\xe2\x80\x9cMind'
p761
I5232
sS'we'
p762
I5084
sS'battery.'
p763
I1528
sS'discontent.'
p764
I2212
sS'extend'
p765
I2467
sS'diplomat.'
p766
I2192
sS'rolled'
p767
I4178
sS'calamity.'
p768
I1674
sS'restricting'
p769
I4141
sS'however'
p770
I2882
sS'religious'
p771
I4057
sS'depend.'
p772
I2147
sS'33,000'
p773
I90
sS'briefing'
p774
I1634
sS'Lindsey'
p775
I649
sS'removing'
p776
I4075
sS'here'
p777
I2825
sS'consists'
p778
I1929
sS'clues'
p779
I1816
sS'news'
p780
I3486
sS'debt'
p781
I2094
sS'Peterson'
p782
I821
sS'faced'
p783
I2478
sS'foes'
p784
I2604
sS'protect'
p785
I3897
sS'accident'
p786
I1199
sS'brown'
p787
I1647
sS'disdain'
p788
I2220
sS'Wednesday.'
p789
I1146
sS'20s.'
p790
I60
sS'towers,\xe2\x80\x9d'
p791
I4809
sS'pressure.'
p792
I3829
sS'strange'
p793
I4559
sS'against'
p794
I1270
sS'Bras\xc3\xadlia'
p795
I274
sS'Laura'
p796
I635
sS'supplies'
p797
I4619
sS'planned'
p798
I3746
sS'receives'
p799
I3996
sS'Doug'
p800
I371
sS'operating'
p801
I3579
sS'expense'
p802
I2447
sS'adapted'
p803
I1238
sS'asked'
p804
I1438
sS'heat-seeking'
p805
I2808
sS'Given'
p806
I470
sS'tone'
p807
I4791
sS'very'
p808
I4997
sS'MH17'
p809
I673
sS'appeared'
p810
I1401
sS'partygoers'
p811
I3663
sS'irresponsible'
p812
I3070
sS'civilians'
p813
I1787
sS'plane.\xe2\x80\x9d'
p814
I3742
sS'epidemic'
p815
I2389
sS'height'
p816
I2814
sS'written'
p817
I5176
sS'Ireland'
p818
I546
sS'path'
p819
I3673
sS'loaded'
p820
I3231
sS'251'
p821
I69
sS'offered'
p822
I3546
sS'Dutch.'
p823
I380
sS'Pro-Russia'
p824
I848
sS'conference'
p825
I1905
sS'now.'
p826
I3524
sS'strong'
p827
I4578
sS'Kerry'
p828
I593
sS'C.'
p829
I291
sS'engines'
p830
I2375
sS'Speechwriters'
p831
I1008
sS'union'
p832
I4921
sS'unscheduled'
p833
I4941
sS'condemned'
p834
I1896
sS'remained'
p835
I4063
sS'three'
p836
I4768
sS'been'
p837
I1546
sS'.'
p838
I16
sS'\xe2\x80\x9cirreversible'
p839
I5284
sS'much'
p840
I3438
sS'interest'
p841
I3031
sS'basic'
p842
I1523
sS'expected'
p843
I2443
sS'\xe2\x80\x9cairway\xe2\x80\x9d'
p844
I5267
sS'dozens'
p845
I2278
sS'stakes,\xe2\x80\x9d'
p846
I4507
sS'similar'
p847
I4384
sS'refuted'
p848
I4029
sS'\xe2\x80\x9cMilitary'
p849
I5231
sS'life'
p850
I3197
sS'rather'
p851
I3960
sS'families'
p852
I2495
sS'deeper'
p853
I2112
sS'Vice'
p854
I1124
sS'drugs'
p855
I2294
sS'quantities'
p856
I3931
sS'government'
p857
I2718
sS'deteriorated.'
p858
I2169
sS'worker'
p859
I5155
sS'filmmaker'
p860
I2543
sS'punitive'
p861
I3923
sS'craft'
p862
I2006
sS'held.'
p863
I2818
sS'prostitution'
p864
I3896
sS'child'
p865
I1763
sS'aviation'
p866
I1482
sS'worked'
p867
I5154
sS'spin'
p868
I4488
sS'clear,\xe2\x80\x9d'
p869
I1797
sS'Secretary'
p870
I958
sS'ordnance'
p871
I3600
sS'exception'
p872
I2434
sS'has'
p873
I2788
sS'conviction'
p874
I1959
sS'Poroshenko'
p875
I835
sS'vendetta'
p876
I4991
sS'apprehension'
p877
I1404
sS'launches'
p878
I3161
sS'antiretroviral'
p879
I1384
sS'battle-scarred'
p880
I1530
sS'inadequate.'
p881
I2940
sS'economies'
p882
I2317
sS'resume'
p883
I4148
sS'air'
p884
I1289
sS'aim'
p885
I1287
sS'airmen'
p886
I1308
sS'appeals'
p887
I1398
sS'aid'
p888
I1284
sS'reconnaissance'
p889
I4004
sS'balance'
p890
I1504
sS'elaborate'
p891
I2333
sS'chilling'
p892
I1767
sS'known.'
p893
I3132
sS'over.'
p894
I3624
sS'escalate.'
p895
I2398
sS'Valentinovna'
p896
I1117
sS'Both'
p897
I270
sS'is'
p898
I3071
sS'character.'
p899
I1753
sS'explanation'
p900
I2454
sS'complaint'
p901
I1870
sS'summoned'
p902
I4613
sS'separatist'
p903
I4295
sS'ill-equipped'
p904
I2910
sS'Rubio'
p905
I916
sS'conjecture.\xe2\x80\x9d'
p906
I1920
sS'experts'
p907
I2450
sS'reports'
p908
I4092
sS'air-to-air.\xe2\x80\x9d'
p909
I1292
sS'Puchkov'
p910
I855
sS'probe.'
p911
I3855
sS'march'
p912
I3297
sS'shift'
p913
I4334
sS'said.'
p914
I4216
sS'if'
p915
I2908
sS'Jacqueline'
p916
I559
sS'confirmed'
p917
I1907
sS'recover'
p918
I4009
sS'Obama\xe2\x80\x99s'
p919
I786
sS'casualties.'
p920
I1720
sS'assurances'
p921
I1457
sS'make'
p922
I3278
sS'boasted'
p923
I1605
sS'Stop'
p924
I1020
sS'V.'
p925
I1113
sS'any'
p926
I1385
sS'beside'
p927
I1566
sS'complex'
p928
I1872
sS'potentially'
p929
I3799
sS'descend'
p930
I2154
sS'big'
p931
I1573
sS'President'
p932
I841
sS'heeded'
p933
I2812
sS'couple'
p934
I1997
sS'violence.\xe2\x80\x9d'
p935
I5027
sS'Chapel'
p936
I309
sS'independent'
p937
I2960
sS'satellite'
p938
I4225
sS'condemnation'
p939
I1895
sS'inadvertently'
p940
I2941
sS'prohibits'
p941
I3876
sS'Institute'
p942
I537
sS'wryly'
p943
I5180
sS'declaring'
p944
I2104
sS'social'
p945
I4430
sS'closings'
p946
I1811
sS'\xe2\x80\x9cIn'
p947
I5219
sS'counterparts'
p948
I1988
sS'greeted'
p949
I2731
sS'responded.'
p950
I4127
sS'documents'
p951
I2250
sS'kin'
p952
I3125
sS'passengers.'
p953
I3669
sS'insisted'
p954
I2995
sS'opportunity'
p955
I3586
sS'blamed'
p956
I1582
sS'McDonald\xe2\x80\x99s'
p957
I712
sS'MH17,\xe2\x80\x9d'
p958
I674
sS'kept'
p959
I3117
sS'avoid.'
p960
I1486
sS'suspicions'
p961
I4642
sS'boasts.'
p962
I1606
sS'damage.'
p963
I2062
sS'Slovyansk'
p964
I994
sS'failing'
p965
I2487
sS'whichever'
p966
I5119
sS'echoed'
p967
I2314
sS'Lavra'
p968
I637
sS'radar-guided'
p969
I3946
sS'contact'
p970
I1938
sS'Thailand.'
p971
I1051
sS'detained'
p972
I2167
sS'says'
p973
I4232
sS'telephone'
p974
I4695
sS'claims'
p975
I1791
sS'jetliner\xe2\x80\x99s'
p976
I3092
sS'underestimated'
p977
I4905
sS'Russia-Ukraine'
p978
I919
sS'hurried'
p979
I2897
sS'left'
p980
I3182
sS'entanglements'
p981
I2383
sS'agency'
p982
I1272
sS'just'
p983
I3109
sS'sentence'
p984
I4292
sS'willing'
p985
I5133
sS'Lithuania'
p986
I653
sS'terrorist'
p987
I4713
sS'consortium'
p988
I1931
sS'assigned'
p989
I1447
sS'McCune'
p990
I711
sS'fighters'
p991
I2537
sS'goggles'
p992
I2712
sS'aviation.'
p993
I1484
sS'farther'
p994
I2503
sS'Separatists'
p995
I964
sS'feet.'
p996
I2516
sS'facts'
p997
I2484
sS'followed'
p998
I2607
sS'solution,\xe2\x80\x9d'
p999
I4441
sS'strayed'
p1000
I4564
sS'victims.'
p1001
I5005
sS'yet'
p1002
I5187
sS'deputy'
p1003
I2152
sS'leaders.'
p1004
I3172
sS'adding'
p1005
I1241
sS'Antonov-26'
p1006
I205
sS'D66'
p1007
I345
sS'Jet'
p1008
I564
sS'thinking'
p1009
I4750
sS'office.'
p1010
I3548
sS'Snezhnye'
p1011
I996
sS'had'
p1012
I2759
sS'Leonard'
p1013
I644
sS'Amsterdam\xe2\x80\x99s'
p1014
I192
sS'suddenly'
p1015
I4601
sS'zone.'
p1016
I5192
sS'spread'
p1017
I4502
sS'board'
p1018
I1600
sS'innocent'
p1019
I2990
sS'channels'
p1020
I1750
sS'uncontrollable.\xe2\x80\x9d'
p1021
I4902
sS'News'
p1022
I763
sS'Philip'
p1023
I827
sS'east'
p1024
I2309
sS'St.'
p1025
I1010
sS'facts,\xe2\x80\x9d'
p1026
I2485
sS'threatens'
p1027
I4765
sS'Roberta'
p1028
I906
sS'ago.'
p1029
I1277
sS'elevation'
p1030
I2337
sS'which'
p1031
I5118
sS'ON'
p1032
I783
sS'\xe2\x80\x9cmany'
p1033
I5286
sS'James'
p1034
I560
sS'swear.'
p1035
I4644
sS'credit'
p1036
I2017
sS'posed'
p1037
I3784
sS'possible'
p1038
I3790
sS'spanned'
p1039
I4471
sS'happened,\xe2\x80\x9d'
p1040
I2777
sS'objective'
p1041
I3528
sS'boxes'
p1042
I1626
sS'life.\xe2\x80\x9d'
p1043
I3199
sS'charred'
p1044
I1758
sS'commandos.'
p1045
I1848
sS'judge'
p1046
I3104
sS'indefinitely.'
p1047
I2958
sS'advanced'
p1048
I1253
sS'apart'
p1049
I1392
sS'dignity'
p1050
I2188
sS'insurgent'
p1051
I3015
sS'59'
p1052
I113
sS'visible'
p1053
I5029
sS'external'
p1054
I2471
sS'hunt'
p1055
I2895
sS'country.'
p1056
I1993
sS'50'
p1057
I110
sS'specific'
p1058
I4480
sS'evidence.'
p1059
I2427
sS'steps'
p1060
I4536
sS'officer'
p1061
I3549
sS'unpacking'
p1062
I4934
sS'follows'
p1063
I2610
sS'hung'
p1064
I2893
sS'moral'
p1065
I3412
sS'security'
p1066
I4269
sS'Pentagon'
p1067
I816
sS'partied'
p1068
I3654
sS'777-200'
p1069
I129
sS'battlefield'
p1070
I1531
sS'attorney'
p1071
I1470
sS'commanders'
p1072
I1846
sS'envision'
p1073
I2388
sS'openly'
p1074
I3576
sS'people'
p1075
I3687
sS'clothes,\xe2\x80\x9d'
p1076
I1813
sS'\xe2\x80\x9cdeeply'
p1077
I5277
sS'crown'
p1078
I2041
sS'somehow'
p1079
I4445
sS'?\xe2\x80\x9d'
p1080
I138
sS'Alissa'
p1081
I176
sS'Commission'
p1082
I327
sS'Alzheimer\xe2\x80\x99s'
p1083
I182
sS'meters'
p1084
I3348
sS'election'
p1085
I2334
sS'scoffed'
p1086
I4248
sS'multiple'
p1087
I3439
sS'Tongeren'
p1088
I1074
sS'strife'
p1089
I4572
sS'step,\xe2\x80\x9d'
p1090
I4533
sS'doorstep'
p1091
I2265
sS'sister'
p1092
I4391
sS'denies'
p1093
I2137
sS'shapes'
p1094
I4321
sS'total'
p1095
I4799
sS'dense'
p1096
I2140
sS'tracked'
p1097
I4817
sS'for'
p1098
I2613
sS'bottom'
p1099
I1622
sS'purple'
p1100
I3924
sS'establish'
p1101
I2407
sS'opposite'
p1102
I3589
sS'comments'
p1103
I1855
sS'contributing'
p1104
I1949
sS'everything'
p1105
I2425
sS'peril.'
p1106
I3698
sS'asking'
p1107
I1440
sS'Let'
p1108
I645
sS'attack.'
p1109
I1462
sS'month.'
p1110
I3408
sS'denied'
p1111
I2135
sS'provoking'
p1112
I3912
sS'beating'
p1113
I1538
sS'Sergeyev'
p1114
I969
sS'He'
p1115
I498
sS'cash-strapped'
p1116
I1717
sS'Robertsson'
p1117
I907
sS'capabilities.'
p1118
I1692
sS'signaled'
p1119
I4374
sS'\xe2\x80\x9ccontinuing'
p1120
I5275
sS'burn'
p1121
I1658
sS'disappeared'
p1122
I2201
sS'translated'
p1123
I4834
sS'de-escalating'
p1124
I2085
sS'plane\xe2\x80\x99s'
p1125
I3745
sS'frauds.\xe2\x80\x9d'
p1126
I2640
sS'confrontation'
p1127
I1914
sS'\xe2\x80\x9cEverything'
p1128
I5212
sS'losing'
p1129
I3256
sS'trajectory'
p1130
I4831
sS'post'
p1131
I3793
sS'Grad'
p1132
I478
sS'conclusion.'
p1133
I1890
sS'First'
p1134
I433
sS'Eileen'
p1135
I395
sS'threat.'
p1136
I4762
sS'\xe2\x80\x9cprepare'
p1137
I5289
sS'attacks'
p1138
I1465
sS'table.'
p1139
I4658
sS'dollars'
p1140
I2256
sS'citizens'
p1141
I1781
sS'hostilities'
p1142
I2872
sS'routings'
p1143
I4194
sS'dinner'
p1144
I2190
sS'H.'
p1145
I486
sS'afternoon'
p1146
I1266
sS'\xe2\x80\x9cWe'
p1147
I5256
sS'Cameron'
p1148
I298
sS'shared'
p1149
I4323
sS'efforts'
p1150
I2329
sS'Still'
p1151
I1018
sS'rebut'
p1152
I3993
sS'considerations'
p1153
I1927
sS'raised'
p1154
I3952
sS'denominated'
p1155
I2138
sS'statements'
p1156
I4524
sS'university.'
p1157
I4927
sS'facility'
p1158
I2481
sS'civil'
p1159
I1785
sS'Grads,\xe2\x80\x9d'
p1160
I479
sS'thoughts'
p1161
I4758
sS'Abdullah'
p1162
I149
sS'bound'
p1163
I1623
sS'litmus'
p1164
I3225
sS'balances'
p1165
I1505
sS'accommodate'
p1166
I1202
sS'Few'
p1167
I428
sS'one-fourth'
p1168
I3566
sS'Sunday.'
p1169
I1033
sS'fuselage'
p1170
I2668
sS'trafficked'
p1171
I4822
sS'Rizk\xe2\x80\x99s'
p1172
I904
sS'Korean'
p1173
I609
sS'slim'
p1174
I4415
sS'strangely'
p1175
I4560
sS'rely'
p1176
I4059
sS'fields.'
p1177
I2532
sS'fabric'
p1178
I2475
sS'weathered'
p1179
I5093
sS'altitude'
p1180
I1346
sS'constantly'
p1181
I1934
sS'Moscow.'
p1182
I737
sS'be,\xe2\x80\x9d'
p1183
I1534
sS'fight'
p1184
I2534
sS'systems.'
p1185
I4656
sS'departure.'
p1186
I2145
sS'clinical'
p1187
I1802
sS'towing'
p1188
I4810
sS'authorized'
p1189
I1476
sS'way'
p1190
I5079
sS'crews'
p1191
I2021
sS'second'
p1192
I4263
sS'military.'
p1193
I3363
sS'Elena'
p1194
I397
sS'disaster,\xe2\x80\x9d'
p1195
I2206
sS'war'
p1196
I5056
sS'cloth'
p1197
I1812
sS'they\xe2\x80\x99ve'
p1198
I4744
sS'lowest'
p1199
I3267
sS'starve'
p1200
I4517
sS'head'
p1201
I2796
sS'insurrection'
p1202
I3018
sS'amateur'
p1203
I1352
sS'form'
p1204
I2624
sS'offer'
p1205
I3545
sS'something'
p1206
I4447
sS'attempted'
p1207
I1467
sS'becoming'
p1208
I1544
sS'discourage'
p1209
I2213
sS'landing'
p1210
I3140
sS'so.'
p1211
I4429
sS'peninsula'
p1212
I3686
sS'taken'
p1213
I4663
sS'heat'
p1214
I2807
sS'powerfully'
p1215
I3805
sS'hear'
p1216
I2803
sS'dead'
p1217
I2086
sS'customs'
p1218
I2055
sS'worshippers'
p1219
I5167
sS'Lyubov'
p1220
I669
sS'removed'
p1221
I4074
sS'warning'
p1222
I5064
sS'analyst'
p1223
I1361
sS'GMT'
p1224
I455
sS'week'
p1225
I5095
sS'absent'
p1226
I1192
sS'counsel'
p1227
I1984
sS'significantly'
p1228
I4377
sS'&#39;re'
p1229
I7
sS'veiled'
p1230
I4990
sS'happen'
p1231
I2775
sS'lashed'
p1232
I3148
sS'markets'
p1233
I3300
sS'crew.'
p1234
I2020
sS'Whoever'
p1235
I1159
sS'Myroslava'
p1236
I743
sS'different'
p1237
I2184
sS'considered'
p1238
I1928
sS'tweeted.'
p1239
I4875
sS'shares'
p1240
I4324
sS'Tony'
p1241
I1075
sS'boomerang'
p1242
I1613
sS'radar\xe2\x80\x99s'
p1243
I3948
sS'photographs'
p1244
I3715
sS'Lolita'
p1245
I654
sS'Indonesians'
p1246
I531
sS'150'
p1247
I40
sS'liberal'
p1248
I3194
sS'154'
p1249
I41
sS'fury'
p1250
I2667
sS'request'
p1251
I4100
sS'warring'
p1252
I5067
sS'Josh'
p1253
I576
sS'3.59'
p1254
I82
sS'insurrection.'
p1255
I3019
sS'evidence'
p1256
I2426
sS'presented'
p1257
I3820
sS'expertise'
p1258
I2449
sS'promised'
p1259
I3879
sS'Gaza'
p1260
I460
sS'pilots'
p1261
I3729
sS'door'
p1262
I2263
sS'floating'
p1263
I2590
sS'incursion'
p1264
I2956
sS'bore'
p1265
I1619
sS'negotiations'
p1266
I3473
sS'15.'
p1267
I39
sS'specially'
p1268
I4479
sS'looked'
p1269
I3250
sS'marking'
p1270
I3302
sS'Francisco'
p1271
I447
sS'half-staff'
p1272
I2763
sS'deployed.'
p1273
I2151
sS'dotted'
p1274
I2266
sS'no'
p1275
I3495
sS'not'
p1276
I3508
sS'skirted'
p1277
I4407
sS'ability,\xe2\x80\x9d'
p1278
I1185
sS'Needle'
p1279
I756
sS'things'
p1280
I4748
sS'jet\xe2\x80\x99s'
p1281
I3095
sS'handed'
p1282
I2770
sS'junta'
p1283
I3106
sS'website'
p1284
I5094
sS'composite'
p1285
I1877
sS'Rogov'
p1286
I909
sS'Andrei'
p1287
I198
sS'role'
p1288
I4176
sS'holding'
p1289
I2853
sS'messy'
p1290
I3345
sS'test'
p1291
I4716
sS'vanished'
p1292
I4978
sS'ribbons'
p1293
I4159
sS'company'
p1294
I1862
sS'\xe2\x80\x9cAirlines'
p1295
I5198
sS'\xe2\x80\x9cBut'
p1296
I5202
sS'picture'
p1297
I3718
sS'Klitschko'
p1298
I605
sS'models'
p1299
I3397
sS'Shift'
p1300
I980
sS'why'
p1301
I5125
sS'Later'
p1302
I632
sS'Wilmington'
p1303
I1164
sS'transported'
p1304
I4839
sS'Melbourne'
p1305
I717
sS'state-owned'
p1306
I4520
sS'\xe2\x80\x9cDefinitely'
p1307
I5205
sS'fell'
p1308
I2517
sS'intent'
p1309
I3028
sS'dark.'
p1310
I2073
sS'authorities'
p1311
I1474
sS'stoke'
p1312
I4544
sS'hurt'
p1313
I2898
sS'weekend'
p1314
I5097
sS'senior'
p1315
I4287
sS'died'
p1316
I2182
sS'congested'
p1317
I1919
sS'billion'
p1318
I1575
sS'warn'
p1319
I5062
sS'militias'
p1320
I3366
sS'happening'
p1321
I2778
sS'\xe2\x80\x9cWhat'
p1322
I5258
sS'confused.'
p1323
I1917
sS'normally'
p1324
I3504
sS'Wim'
p1325
I1165
sS'May.'
p1326
I709
sS'flag'
p1327
I2570
sS'daily'
p1328
I2060
sS'itself,\xe2\x80\x9d'
p1329
I3084
sS'time'
p1330
I4778
sS'push'
p1331
I3926
sS'So'
p1332
I999
sS'overturned'
p1333
I3631
sS'stricken'
p1334
I4570
sS'display.'
p1335
I2230
sS'decision'
p1336
I2098
sS'Times'
p1337
I1069
sS'neighbors'
p1338
I3475
sS'government.'
p1339
I2720
sS'outspoken'
p1340
I3621
sS'managed'
p1341
I3285
sS'finger-pointing'
p1342
I2554
sS'corps'
p1343
I1972
sS'diplomacy'
p1344
I2191
sS'dance'
p1345
I2065
sS'notice\xe2\x80\x9d'
p1346
I3520
sS'global'
p1347
I2704
sS'atmosphere'
p1348
I1460
sS'K.G.B.\xe2\x80\x9d'
p1349
I585
sS'powerlessness'
p1350
I3806
sS'leads'
p1351
I3174
sS'extremist.'
p1352
I2474
sS'Republic'
p1353
I892
sS'aggressive.'
p1354
I1275
sS'bandits'
p1355
I1509
sS'battle'
p1356
I1529
sS'shot'
p1357
I4359
sS'hindering'
p1358
I2845
sS'involved'
p1359
I3066
sS'provided.'
p1360
I3905
sS'tractor.'
p1361
I4818
sS'cow'
p1362
I2004
sS'certainly'
p1363
I1738
sS'Sept.'
p1364
I965
sS'depend'
p1365
I2146
sS'zone'
p1366
I5191
sS'us.\xe2\x80\x9d'
p1367
I4964
sS'Dam'
p1368
I349
sS'Dan'
p1369
I350
sS'show'
p1370
I4363
sS'should'
p1371
I4360
sS'crates'
p1372
I2013
sS'Standard'
p1373
I1011
sS'violation'
p1374
I5024
sS'finally'
p1375
I2546
sS'praised'
p1376
I3808
sS'determinations'
p1377
I2171
sS'text'
p1378
I4717
sS'Facebook'
p1379
I422
sS'suffered'
p1380
I4602
sS'must'
p1381
I3444
sS'veterans'
p1382
I4999
sS'Garriga'
p1383
I459
sS'adviser'
p1384
I1256
sS'fatigues'
p1385
I2505
sS'string'
p1386
I4576
sS'advantage'
p1387
I1254
sS'Trenin'
p1388
I1080
sS'allegations'
p1389
I1325
sS'none'
p1390
I3499
sS'choice'
p1391
I1768
sS'tanks'
p1392
I4677
sS'\xe2\x80\x9csuperbusy.\xe2\x80\x9d'
p1393
I5296
sS'society.'
p1394
I4433
sS'emphasized'
p1395
I2352
sS'blast'
p1396
I1584
sS'Where'
p1397
I1155
sS'minute'
p1398
I3381
sS'governments'
p1399
I2721
sS'that'
p1400
I4721
sS'denounced'
p1401
I2139
sS'percent'
p1402
I3695
sS'short-range'
p1403
I4355
sS'Just'
p1404
I584
sS'coal-mining'
p1405
I1820
sS'did'
p1406
I2180
sS'waged'
p1407
I5044
sS'sticks'
p1408
I4539
sS'Global'
p1409
I473
sS'posts'
p1410
I3796
sS'accidentally'
p1411
I1201
sS'cloudy'
p1412
I1815
sS'leave'
p1413
I3178
sS'two-week'
p1414
I4881
sS'scores'
p1415
I4252
sS'team'
p1416
I4688
sS'Berlusconi\xe2\x80\x99s'
p1417
I254
sS'Tan'
p1418
I1047
sS'unusual.\xe2\x80\x9d'
p1419
I4947
sS'loss.\xe2\x80\x9d'
p1420
I3258
sS'round'
p1421
I4183
sS'unaware'
p1422
I4896
sS'\xe2\x80\x9cthe'
p1423
I5297
sS'possibility'
p1424
I3789
sS'Rostov'
p1425
I912
sS'iconic'
p1426
I2902
sS'unexpected'
p1427
I4916
sS'Silvio'
p1428
I988
sS'verifiable'
p1429
I4993
sS'findings'
p1430
I2552
sS'tougher'
p1431
I4804
sS'hindered'
p1432
I2844
sS'M.'
p1433
I670
sS'discover'
p1434
I2214
sS'long-winded'
p1435
I3243
sS'cost'
p1436
I1978
sS'radar'
p1437
I3945
sS'tack.'
p1438
I4659
sS'Heritage'
p1439
I505
sS'Bishop.'
p1440
I258
sS'0.44'
p1441
I21
sS'flashlights.'
p1442
I2577
sS'cargo'
p1443
I1706
sS'routes.'
p1444
I4190
sS'high-level'
p1445
I2835
sS'adds'
p1446
I1246
sS'appear'
p1447
I1399
sS'representative'
p1448
I4094
sS'Orthodox'
p1449
I800
sS'Manpads.'
p1450
I692
sS'Organization.'
p1451
I799
sS'assistance'
p1452
I1450
sS'lead'
p1453
I3168
sS'investigation,\xe2\x80\x9d'
p1454
I3054
sS'remain'
p1455
I4061
sS'havoc'
p1456
I2794
sS'Cockpit'
p1457
I324
sS'example.'
p1458
I2431
sS'looking'
p1459
I3251
sS'military-controlled'
p1460
I3361
sS'Lysenko'
p1461
I668
sS'goes'
p1462
I2711
sS'services,\xe2\x80\x9d'
p1463
I4305
sS'During'
p1464
I378
sS'falling'
p1465
I2492
sS'Gorter'
p1466
I475
sS'boost'
p1467
I1614
sS'filled'
p1468
I2542
sS'threats.'
p1469
I4767
sS'collateral'
p1470
I1828
sS'transportation'
p1471
I4838
sS'MH-370.\xe2\x80\x9d'
p1472
I672
sS'Libya'
p1473
I646
sS'months'
p1474
I3409
sS'heavily'
p1475
I2810
sS'People\xe2\x80\x99s'
p1476
I818
sS'Runway'
p1477
I917
sS'West.'
p1478
I1150
sS'Infectious'
p1479
I532
sS'water'
p1480
I5076
sS'abandon'
p1481
I1183
sS'sealed'
p1482
I4256
sS'than'
p1483
I4720
sS'groups'
p1484
I2744
sS'address'
p1485
I1244
sS'alone'
p1486
I1340
sS'uprising.'
p1487
I4956
sS'along'
p1488
I1341
sS'777-200ER.'
p1489
I130
sS'off.'
p1490
I3543
sS'appears'
p1491
I1402
sS'VMware'
p1492
I1115
sS'wait'
p1493
I5046
sS'box'
p1494
I1624
sS'passengers'
p1495
I3668
sS'response,\xe2\x80\x9d'
p1496
I4129
sS'Associated'
p1497
I218
sS'America\xe2\x80\x99s'
p1498
I189
sS'flames'
p1499
I2575
sS'remarks'
p1500
I4069
sS'institute'
p1501
I3004
sS'my'
p1502
I3445
sS'guilty'
p1503
I2754
sS'restructuring'
p1504
I4145
sS'widening'
p1505
I5128
sS'trial'
p1506
I4850
sS'convoys'
p1507
I1963
sS'shells'
p1508
I4333
sS'here.'
p1509
I2826
sS'Dear'
p1510
I356
sS'Crimea'
p1511
I343
sS'noticeably'
p1512
I3518
sS'studies'
p1513
I4588
sS'city\xe2\x80\x99s'
p1514
I1784
sS'1.5'
p1515
I25
sS'raise'
p1516
I3951
sS'case.'
p1517
I1715
sS'airport\xe2\x80\x99s'
p1518
I1313
sS'marked'
p1519
I3298
sS'bloody'
p1520
I1597
sS'rebels\xe2\x80\x99'
p1521
I3992
sS'Jong'
p1522
I572
sS'Therefore'
p1523
I1058
sS'shoulder-carried'
p1524
I4361
sS'officials\xe2\x80\x99'
p1525
I3556
sS'Ind.'
p1526
I527
sS'crisis'
p1527
I2031
sS'market'
p1528
I3299
sS'sky'
p1529
I4408
sS'sympathetic'
p1530
I4651
sS'bite.'
p1531
I1578
sS'Australia'
p1532
I223
sS'troops'
p1533
I4856
sS'working'
p1534
I5157
sS'lose'
p1535
I3255
sS'insurgency'
p1536
I3014
sS'aircraft.'
p1537
I1297
sS'angry'
p1538
I1367
sS'Australians.'
p1539
I227
sS'visit'
p1540
I5031
sS'tears'
p1541
I4690
sS'by'
p1542
I1670
sS'scenarios'
p1543
I4240
sS'live'
p1544
I3228
sS'bases'
p1545
I1522
sS'military-operation'
p1546
I3362
sS'unjust'
p1547
I4928
sS'symbolized'
p1548
I4650
sS'scope'
p1549
I4250
sS'sky.'
p1550
I4409
sS'organization.'
p1551
I3602
sS'BODIES'
p1552
I232
sS'Thursday.'
p1553
I1066
sS'suggestions'
p1554
I4605
sS'endorsing'
p1555
I2366
sS'son'
p1556
I4449
sS'technically'
p1557
I4693
sS'\xe2\x80\x9cfratricidal'
p1558
I5281
sS'safely.'
p1559
I4213
sS'These'
p1560
I1059
sS'Monday.'
p1561
I733
sS'acceptable'
p1562
I1195
sS'moving-walkway'
p1563
I3437
sS'Union.'
p1564
I1104
sS'outrage'
p1565
I3618
sS'tumbling'
p1566
I4865
sS'downing'
p1567
I2276
sS'Neeltje'
p1568
I757
sS'investigation'
p1569
I3053
sS'\xe2\x80\x9cOver'
p1570
I5240
sS'Ivanovna'
p1571
I555
sS'cases'
p1572
I1716
sS'verified'
p1573
I4994
sS'effort'
p1574
I2328
sS'behalf'
p1575
I1554
sS'fly'
p1576
I2599
sS'organizations'
p1577
I3603
sS'Rebels'
p1578
I882
sS'Kosovo'
p1579
I611
sS'avoiding'
p1580
I1489
sS'prayed'
p1581
I3809
sS'handle.'
p1582
I2772
sS'flagship'
p1583
I2574
sS'impasse'
p1584
I2921
sS'regions'
p1585
I4036
sS'incidents'
p1586
I2945
sS'can'
p1587
I1687
sS'royal'
p1588
I4195
sS'believed'
p1589
I1560
sS'Our'
p1590
I803
sS'arrive'
p1591
I1429
sS'Ryabkov'
p1592
I930
sS'1970s.'
p1593
I47
sS'streak'
p1594
I4565
sS'claim'
p1595
I1788
sS'dedicated'
p1596
I2107
sS'firing'
p1597
I2562
sS'grassy'
p1598
I2727
sS'Federal'
p1599
I424
sS'Catherine'
p1600
I306
sS'territory.\xe2\x80\x9d'
p1601
I4711
sS'sense'
p1602
I4288
sS'confused'
p1603
I1916
sS'suspects'
p1604
I4638
sS'sphere'
p1605
I4486
sS'heard'
p1606
I2804
sS'fortunes'
p1607
I2628
sS'Score'
p1608
I955
sS'239'
p1609
I66
sS'council'
p1610
I1983
sS'allowed'
p1611
I1334
sS'Britons'
p1612
I282
sS'damage,\xe2\x80\x9d'
p1613
I2061
sS'provoke'
p1614
I3910
sS'clothing'
p1615
I1814
sS'Kuijer.'
p1616
I621
sS'here.\xe2\x80\x9d'
p1617
I2827
sS'Ellung'
p1618
I399
sS'Putin'
p1619
I857
sS'dogfight'
p1620
I2253
sS'piled'
p1621
I3725
sS'Coke'
p1622
I325
sS'suitcases'
p1623
I4609
sS'moves'
p1624
I3435
sS'\xe2\x80\x9cRussia\xe2\x80\x99s'
p1625
I5244
sS'was'
p1626
I5071
sS'1'
p1627
I23
sS'night-vision'
p1628
I3490
sS'Rebel'
p1629
I881
sS'listings'
p1630
I3222
sS'survivors'
p1631
I4636
sS'significant'
p1632
I4376
sS'ensure'
p1633
I2381
sS'speaks'
p1634
I4475
sS'whose'
p1635
I5124
sS'Why'
p1636
I1160
sS'economy'
p1637
I2318
sS'Donetsk.'
p1638
I370
sS'coming'
p1639
I1843
sS'information'
p1640
I2982
sS'ALMOST'
p1641
I143
sS'capability.'
p1642
I1694
sS'blocks'
p1643
I1593
sS'Bali.'
p1644
I236
sS'choreography'
p1645
I1769
sS'crashed'
p1646
I2011
sS'designed'
p1647
I2156
sS'sky.\xe2\x80\x9d'
p1648
I4410
sS'date'
p1649
I2075
sS'such'
p1650
I4599
sS'data'
p1651
I2074
sS'lacked'
p1652
I3135
sS'goal'
p1653
I2709
sS'better.\xe2\x80\x9d'
p1654
I1569
sS'\xe2\x80\x9cHa'
p1655
I5214
sS'surfing'
p1656
I4629
sS'natural'
p1657
I3461
sS'different.'
p1658
I2185
sS'missiles.'
p1659
I3386
sS'\xe2\x80\x9cThe'
p1660
I5248
sS'long-range'
p1661
I3241
sS'near'
p1662
I3463
sS'chef'
p1663
I1761
sS'voice'
p1664
I5035
sS'borrowing'
p1665
I1620
sS'their'
p1666
I4727
sS'complaining'
p1667
I1869
sS'ones'
p1668
I3567
sS'Radio'
p1669
I870
sS'silence'
p1670
I4380
sS'taking'
p1671
I4666
sS'tall'
p1672
I4671
sS'memory.'
p1673
I3340
sS'pulled'
p1674
I3920
sS'travel'
p1675
I4842
sS'restricted'
p1676
I4140
sS'nearly'
p1677
I3466
sS'air-defense'
p1678
I1290
sS'forced'
p1679
I2616
sS'serving'
p1680
I4307
sS'C.I.A.'
p1681
I292
sS'hotly'
p1682
I2876
sS'government-controlled'
p1683
I2719
sS'pointed'
p1684
I3764
sS'shaky'
p1685
I4319
sS'displayed'
p1686
I2231
sS'nearby.'
p1687
I3465
sS'years'
p1688
I5184
sS'aiding'
p1689
I1286
sS'Kirill'
p1690
I603
sS'program'
p1691
I3870
sS'cuts'
p1692
I2057
sS'argued'
p1693
I1415
sS'White'
p1694
I1158
sS'still'
p1695
I4540
sS'Mandela'
p1696
I690
sS'neither'
p1697
I3476
sS'limbs'
p1698
I3210
sS'air-to-air'
p1699
I1291
sS'group'
p1700
I2742
sS'monitor'
p1701
I3405
sS'internationally'
p1702
I3037
sS'acknowledge'
p1703
I1217
sS'Kirby'
p1704
I602
sS'reacting'
p1705
I3969
sS'this.\xe2\x80\x99'
p1706
I4753
sS'coordinates'
p1707
I1969
sS'Emergencies'
p1708
I401
sS'platform'
p1709
I3752
sS'suspicion'
p1710
I4641
sS'Bodies'
p1711
I266
sS'Scheveningen'
p1712
I951
sS'policy'
p1713
I3769
sS'World'
p1714
I1168
sS'Once'
p1715
I793
sS'work'
p1716
I5153
sS'visiting'
p1717
I5032
sS'limbo'
p1718
I3209
sS'coincidental'
p1719
I1824
sS'shooting'
p1720
I4348
sS'mode.\xe2\x80\x9d'
p1721
I3395
sS'emailed'
p1722
I2342
sS'adjacent'
p1723
I1247
sS'disparate'
p1724
I2227
sS'civilian'
p1725
I1786
sS'Kyla'
p1726
I623
sS'regarding'
p1727
I4032
sS'episode.'
p1728
I2391
sS'interview'
p1729
I3043
sS'year.'
p1730
I5183
sS'markings'
p1731
I3303
sS'She'
p1732
I979
sS'refrigerated'
p1733
I4025
sS'half'
p1734
I2760
sS'arriving'
p1735
I1431
sS'R.'
p1736
I864
sS'now'
p1737
I3523
sS'CAUSE'
p1738
I293
sS'discuss'
p1739
I2215
sS'developments'
p1740
I2178
sS'Investigators'
p1741
I540
sS'battlefields'
p1742
I1532
sS'name'
p1743
I3450
sS'lies'
p1744
I3196
sS'Khalib'
p1745
I595
sS'redactions'
p1746
I4014
sS'London-Dubai'
p1747
I656
sS'Airbus'
p1748
I165
sS'monthslong'
p1749
I3411
sS'domain'
p1750
I2257
sS'en'
p1751
I2355
sS'retrieve'
p1752
I4152
sS'Raiff'
p1753
I872
sS'thuggish'
p1754
I4773
sS'directing'
p1755
I2196
sS'airspace.'
p1756
I1315
sS'Legal'
p1757
I642
sS'Barack'
p1758
I239
sS'Nierop'
p1759
I767
sS'fires'
p1760
I2561
sS'begun'
p1761
I1553
sS'sifted'
p1762
I4370
sS'S.B.U.'
p1763
I931
sS'defense.'
p1764
I2117
sS'avoided'
p1765
I1487
sS'disasters'
p1766
I2208
sS'surprise'
p1767
I4630
sS'Carolina'
p1768
I304
sS'that,\xe2\x80\x9d'
p1769
I4722
sS'shown'
p1770
I4365
sS'medications'
p1771
I3330
sS'opened'
p1772
I3574
sS'Malaria'
p1773
I681
sS'space'
p1774
I4470
sS'Izvolsky'
p1775
I556
sS'increase'
p1776
I2950
sS'condemns'
p1777
I1897
sS'trauma'
p1778
I4840
sS'Joe'
p1779
I567
sS'emerged'
p1780
I2344
sS'AMSTERDAM'
p1781
I144
sS'jetliner.'
p1782
I3090
sS'dominate'
p1783
I2259
sS'pointing'
p1784
I3766
sS'Vast'
p1785
I1121
sS'corridors.'
p1786
I1976
sS'disaster.'
p1787
I2207
sS'inevitably'
p1788
I2976
sS'Responding'
p1789
I897
sS'theory'
p1790
I4735
sS'Europeans.'
p1791
I411
sS'lawmaker'
p1792
I3164
sS'cars'
p1793
I1713
sS'friends.'
p1794
I2647
sS'governing'
p1795
I2717
sS'fire.'
p1796
I2558
sS'airspaces'
p1797
I1316
sS'manifest.'
p1798
I3293
sS'ends.\xe2\x80\x9d'
p1799
I2367
sS'complicated'
p1800
I1873
sS'Either'
p1801
I396
sS'___'
p1802
I1180
sS'Ocean'
p1803
I787
sS'unprofessional,\xe2\x80\x9d'
p1804
I4936
sS'care'
p1805
I1704
sS'partner'
p1806
I3657
sS'Peshawar'
p1807
I819
sS'training'
p1808
I4829
sS'Union\xe2\x80\x99s'
p1809
I1106
sS'jetliners'
p1810
I3091
sS'locations'
p1811
I3237
sS'snapshots'
p1812
I4426
sS'SA-series'
p1813
I939
sS'reported.'
p1814
I4088
sS'Lange\xe2\x80\x99s'
p1815
I630
sS'routed'
p1816
I4187
sS'avoided\xe2\x80\x9d'
p1817
I1488
sS'\xe2\x80\x9cIt'
p1818
I5220
sS'place'
p1819
I3736
sS'aboard'
p1820
I1187
sS'routes'
p1821
I4188
sS'mortars'
p1822
I3419
sS'equity.'
p1823
I2394
sS'small.'
p1824
I4418
sS'indispensable'
p1825
I2969
sS'waited'
p1826
I5047
sS'first'
p1827
I2566
sS'Brazil'
p1828
I275
sS'rebel-held'
p1829
I3987
sS'flying'
p1830
I2600
sS'Thursday\xe2\x80\x99s'
p1831
I1067
sS'sent.'
p1832
I4291
sS'fences.'
p1833
I2523
sS'spoken'
p1834
I4494
sS'question'
p1835
I3934
sS'Stolyarov'
p1836
I1019
sS'There'
p1837
I1057
sS'Royal'
p1838
I915
sS'streets.'
p1839
I4566
sS'Asia'
p1840
I214
sS'one'
p1841
I3565
sS'reopen'
p1842
I4079
sS'fund-raiser'
p1843
I2661
sS'Black'
p1844
I261
sS'night.'
p1845
I3491
sS'directly'
p1846
I2198
sS'courts.'
p1847
I2001
sS'carry'
p1848
I1711
sS'impossible'
p1849
I2932
sS'message'
p1850
I3343
sS'Vladislav'
p1851
I1133
sS'open'
p1852
I3571
sS'Skies\xe2\x80\x9d'
p1853
I992
sS'engineer'
p1854
I2374
sS'Putin\xe2\x80\x99s'
p1855
I860
sS'given'
p1856
I2702
sS'others'
p1857
I3611
sS'officials'
p1858
I3554
sS'silent'
p1859
I4382
sS'Monday'
p1860
I732
sS'meaningful'
p1861
I3319
sS'speech'
p1862
I4484
sS'SU-25'
p1863
I941
sS'mysteriously'
p1864
I3446
sS'dressed'
p1865
I2286
sS'response'
p1866
I4128
sS'anyone'
p1867
I1386
sS'raged'
p1868
I3949
sS'wing'
p1869
I5137
sS'2'
p1870
I49
sS'draft'
p1871
I2279
sS'\xe2\x80\x9cNearly'
p1872
I5234
sS'separatists'
p1873
I4296
sS'Such'
p1874
I1030
sS'Post'
p1875
I839
sS'bits'
p1876
I1579
sS'west'
p1877
I5108
sS'friend'
p1878
I2644
sS'bloodshed'
p1879
I1596
sS'stronghold'
p1880
I4580
sS'postcard'
p1881
I3794
sS'on.'
p1882
I3563
sS'unbiased\xe2\x80\x9d'
p1883
I4897
sS'allegedly'
p1884
I1327
sS'sound.'
p1885
I4458
sS'\xe2\x80\x9cblown'
p1886
I5270
sS'suit'
p1887
I4607
sS'\xe2\x80\x9cwas'
p1888
I5305
sS'repatriate'
p1889
I4080
sS'uneconomical'
p1890
I4915
sS'broadcast'
p1891
I1641
sS'forward'
p1892
I2629
sS'criticize'
p1893
I2035
sS'proficiency'
p1894
I3866
sS'ice\xe2\x80\x9d'
p1895
I2901
sS'Notam'
p1896
I774
sS'probably'
p1897
I3853
sS'copy'
p1898
I1971
sS'undoubtedly'
p1899
I4914
sS'photograph'
p1900
I3714
sS'infiltrate'
p1901
I2979
sS'confirmed.'
p1902
I1908
sS'11'
p1903
I32
sS'10'
p1904
I27
sS'parts'
p1905
I3659
sS'12'
p1906
I34
sS'15'
p1907
I38
sS'14'
p1908
I36
sS'17'
p1909
I42
sS'accordance'
p1910
I1204
sS'structured'
p1911
I4584
sS'require'
p1912
I4101
sS'diplomatic'
p1913
I2193
sS'reinforce'
p1914
I4043
sS'spokeswoman'
p1915
I4496
sS'hasty'
p1916
I2789
sS'accused'
p1917
I1213
sS'launching'
p1918
I3162
sS'cavalier'
p1919
I1727
sS'miles'
p1920
I3354
sS'Atlanta-based'
p1921
I221
sS'earth.'
p1922
I2306
sS'site,\xe2\x80\x9d'
p1923
I4393
sS'transport'
p1924
I4837
sS'theory.'
p1925
I4736
sS'and'
p1926
I1363
sS'mountain'
p1927
I3425
sS'gathering'
p1928
I2683
sS'&#39;s'
p1929
I8
sS'10-15'
p1930
I29
sS'fault.'
p1931
I2507
sS'turned'
p1932
I4872
sS'argument'
p1933
I1417
sS'jewels'
p1934
I3096
sS'sad'
p1935
I4206
sS'men'
p1936
I3341
sS'instantly,\xe2\x80\x9d'
p1937
I3001
sS'say'
p1938
I4230
sS'conspiracy'
p1939
I1933
sS'Beijing.'
p1940
I247
sS'Rossiya'
p1941
I911
sS'distorted'
p1942
I2241
sS'anger'
p1943
I1364
sS'event.\xe2\x80\x9d'
p1944
I2417
sS'investigation.'
p1945
I3055
sS'&#39;m'
p1946
I6
sS'saw'
p1947
I4229
sS'Naples'
p1948
I751
sS'sat'
p1949
I4224
sS'speakers'
p1950
I4473
sS'mourning,\xe2\x80\x9d'
p1951
I3429
sS'&#39;S'
p1952
I5
sS'weaponry.'
p1953
I5089
sS'Shanks.'
p1954
I976
sS'general'
p1955
I2687
sS'Rutte'
p1956
I929
sS'programs.'
p1957
I3872
sS'De'
p1958
I355
sS'Pro-Moscow'
p1959
I847
sS'aside'
p1960
I1436
sS'shocked'
p1961
I4340
sS'instructed'
p1962
I3008
sS'note'
p1963
I3511
sS'equipment'
p1964
I2392
sS'ideal'
p1965
I2904
sS'potential'
p1966
I3798
sS'shoot'
p1967
I4345
sS'take'
p1968
I4662
sS'late.'
p1969
I3152
sS'interior'
p1970
I3035
sS'new'
p1971
I3484
sS'secure'
p1972
I4268
sS'concern'
p1973
I1885
sS'supporting'
p1974
I4624
sS'channel'
p1975
I1749
sS'wouldn\xe2\x80\x99t'
p1976
I5170
sS'200'
p1977
I54
sS'begin'
p1978
I1550
sS'sure'
p1979
I4627
sS'maneuvering'
p1980
I3289
sS'Quinn'
p1981
I863
sS'normal'
p1982
I3503
sS'arguing'
p1983
I1416
sS'dispute'
p1984
I2233
sS'enter'
p1985
I2384
sS'injuries,\xe2\x80\x9d'
p1986
I2988
sS'paid'
p1987
I3639
sS'plan.'
p1988
I3738
sS'\xe2\x80\x9cIf'
p1989
I5218
sS'assault'
p1990
I1442
sS'barrage'
p1991
I1517
sS'East-West'
p1992
I388
sS'less-stringent'
p1993
I3188
sS'angles.'
p1994
I1366
sS'Markov'
p1995
I703
sS'cleared'
p1996
I1799
sS'whoever'
p1997
I5123
sS'conspicuous'
p1998
I1932
sS'overwhelming'
p1999
I3632
sS'resident'
p2000
I4113
sS'operate'
p2001
I3577
sS'heartfelt'
p2002
I2806
sS'especially'
p2003
I2405
sS'Ms.'
p2004
I740
sS'NRC'
p2005
I749
sS'average'
p2006
I1481
sS'later'
p2007
I3153
sS'steady'
p2008
I4530
sS'target-detection'
p2009
I4681
sS'Fifty'
p2010
I429
sS'ways'
p2011
I5082
sS'Torez'
p2012
I1076
sS'Luhansk.'
p2013
I663
sS'Strip'
p2014
I1025
sS'killed.'
p2015
I3120
sS'Amsterdam'
p2016
I190
sS'Rosneft'
p2017
I910
sS'not.'
p2018
I3509
sS'Cossack'
p2019
I336
sS'repeatedly'
p2020
I4084
sS'shop'
p2021
I4349
sS'verified.'
p2022
I4995
sS'Krasnyi'
p2023
I613
sS'monstrous'
p2024
I3406
sS'convoy'
p2025
I1962
sS'tempered'
p2026
I4701
sS'restriction'
p2027
I4142
sS'spots'
p2028
I4499
sS'Sky'
p2029
I993
sS'army.'
p2030
I1426
sS'vehicles.'
p2031
I4989
sS'battalion.'
p2032
I1525
sS'Reuters'
p2033
I898
sS'shoe'
p2034
I4342
sS'southwestern'
p2035
I4467
sS'remnants'
p2036
I4071
sS'aggressive'
p2037
I1274
sS'0.42'
p2038
I20
sS'lower-elevation'
p2039
I3266
sS'insisted.'
p2040
I2996
sS'ground'
p2041
I2738
sS'weapons'
p2042
I5090
sS'We'
p2043
I1144
sS'safeguard'
p2044
I4211
sS'restrictions.'
p2045
I4144
sS'villages'
p2046
I5022
sS'gulf'
p2047
I2755
sS'several'
p2048
I4313
sS'media.'
p2049
I3327
sS'Berlin'
p2050
I251
sS'locals'
p2051
I3236
sS'crime'
p2052
I2023
sS'quickly'
p2053
I3941
sS'only'
p2054
I3570
sS'going'
p2055
I2713
sS'black'
p2056
I1580
sS'raising'
p2057
I3953
sS'incredulous'
p2058
I2955
sS'drama.'
p2059
I2280
sS'Services'
p2060
I973
sS'reminiscent'
p2061
I4070
sS'Afghanistan.'
p2062
I157
sS'Novatek'
p2063
I777
sS'RIA'
p2064
I865
sS'unavailable'
p2065
I4894
sS'unsatisfactory,\xe2\x80\x9d'
p2066
I4939
sS'viewpoint'
p2067
I5015
sS'get'
p2068
I2693
sS'Louis'
p2069
I657
sS'witness'
p2070
I5146
sS'Violence'
p2071
I1129
sS'duel'
p2072
I2298
sS'Ahmad'
p2073
I163
sS'mission'
p2074
I3389
sS'tirelessly'
p2075
I4783
sS'allegation.'
p2076
I1324
sS'SA-11'
p2077
I932
sS'distinctly'
p2078
I2239
sS'imminently.'
p2079
I2917
sS'\xe2\x80\x9cEven'
p2080
I5208
sS'denials'
p2081
I2134
sS'harsher'
p2082
I2786
sS'revulsion'
p2083
I4158
sS'Dahlburg'
p2084
I346
sS'prime'
p2085
I3840
sS'denting'
p2086
I2141
sS'\xe2\x80\x9cOpen'
p2087
I5238
sS'girl'
p2088
I2698
sS'outraged'
p2089
I3619
sS'hollow,\xe2\x80\x9d'
p2090
I2855
sS'people\xe2\x80\x99s'
p2091
I3691
sS'busiest'
p2092
I1662
sS'sixth-story'
p2093
I4402
sS'across'
p2094
I1220
sS'naked'
p2095
I3449
sS'expecting.'
p2096
I2445
sS'wreckage.'
p2097
I5174
sS'though'
p2098
I4756
sS'areas.'
p2099
I1414
sS'discussing'
p2100
I2217
sS'inside'
p2101
I2993
sS'husband'
p2102
I2899
sS'crystal'
p2103
I2046
sS'staff'
p2104
I4504
sS'corridors'
p2105
I1975
sS'declared'
p2106
I2103
sS'jet.'
p2107
I3088
sS'EMC'
p2108
I383
sS'Grant'
p2109
I481
sS'imposing'
p2110
I2931
sS'station'
p2111
I4526
sS'signs'
p2112
I4379
sS'notice'
p2113
I3516
sS'maximum'
p2114
I3312
sS'connections'
p2115
I1922
sS'actively'
p2116
I1231
sS'college'
p2117
I1834
sS'flatly'
p2118
I2578
sS'wrote.'
p2119
I5179
sS'culpable'
p2120
I2048
sS'needs.'
p2121
I3470
sS'72,000'
p2122
I124
sS'where'
p2123
I5116
sS'fails'
p2124
I2488
sS'come.'
p2125
I1842
sS'That'
p2126
I1052
sS'managing'
p2127
I3288
sS'jumped'
p2128
I3105
sS'opening'
p2129
I3575
sS'circulating'
p2130
I1776
sS'sites'
p2131
I4395
sS'impact,\xe2\x80\x9d'
p2132
I2919
sS'target'
p2133
I4679
sS'3'
p2134
I80
sS'kilometer'
p2135
I3122
sS'pilots.'
p2136
I3730
sS'between'
p2137
I1570
sS'it'
p2138
I3078
sS'Allergan'
p2139
I178
sS'bombing'
p2140
I1611
sS'\xe2\x80\x9cculpable,\xe2\x80\x9d'
p2141
I5276
sS'Ukraine.\xe2\x80\x9d'
p2142
I1099
sS'justified'
p2143
I3114
sS'affordable'
p2144
I1262
sS'Benjamin'
p2145
I250
sS'campaign'
p2146
I1683
sS'aviation-data'
p2147
I1483
sS'jobs'
p2148
I3098
sS'pilot\xe2\x80\x99s'
p2149
I3731
sS'annexing'
p2150
I1371
sS'U.S.'
p2151
I1094
sS'horror\xe2\x80\x9d'
p2152
I2868
sS'killing'
p2153
I3121
sS'blame'
p2154
I1581
sS'Marco'
p2155
I698
sS'underneath.'
p2156
I4907
sS'online'
p2157
I3569
sS'\xe2\x80\x9cThat'
p2158
I5247
sS'Each'
p2159
I384
sS'jets'
p2160
I3093
sS'March'
p2161
I696
sS'cities'
p2162
I1778
sS'come'
p2163
I1841
sS'Kavtaradze'
p2164
I590
sS'undermine'
p2165
I4906
sS'reaction'
p2166
I3970
sS'rushed'
p2167
I4205
sS'unstable'
p2168
I4943
sS'installation'
p2169
I2998
sS'useless'
p2170
I4969
sS'spared'
p2171
I4472
sS'successes'
p2172
I4597
sS'many'
p2173
I3295
sS'region'
p2174
I4033
sS'according'
p2175
I1205
sS'called'
p2176
I1678
sS'prompted'
p2177
I3880
sS'Rasmussen.'
p2178
I877
sS'tour'
p2179
I4805
sS'columnist'
p2180
I1836
sS'souls.'
p2181
I4456
sS'recordings'
p2182
I4008
sS'traded'
p2183
I4819
sS'Investment'
p2184
I541
sS'nearby'
p2185
I3464
sS'among'
p2186
I1357
sS'impediments'
p2187
I2923
sS'fields'
p2188
I2531
sS'passenger'
p2189
I3667
sS'continuation'
p2190
I1942
sS'endless'
p2191
I2364
sS'Delaware'
p2192
I359
sS'jeans'
p2193
I3086
sS'period'
p2194
I3699
sS'insist'
p2195
I2994
sS'61'
p2196
I115
sS'62'
p2197
I116
sS'63'
p2198
I117
sS'measures.'
p2199
I3325
sS'learning'
p2200
I3176
sS'67'
p2201
I121
sS'cancel'
p2202
I1688
sS'perpetrators'
p2203
I3703
sS'swiftest'
p2204
I4646
sS'crew'
p2205
I2019
sS'want.'
p2206
I5053
sS'custody'
p2207
I2053
sS'logic'
p2208
I3238
sS'destroyed'
p2209
I2163
sS'unusual'
p2210
I4945
sS'capable'
p2211
I1695
sS'helicopters.'
p2212
I2821
sS'airliner'
p2213
I1300
sS'airlines'
p2214
I1305
sS'But'
p2215
I289
sS'H.I.V.-NAT'
p2216
I488
sS'treated.'
p2217
I4847
sS'Buk'
p2218
I288
sS'collided'
p2219
I1835
sS'combined'
p2220
I1840
sS'volatile'
p2221
I5036
sS'Reporters'
p2222
I890
sS'Known'
p2223
I607
sS'helicopter'
p2224
I2819
sS'borders'
p2225
I1617
sS'500'
p2226
I111
sS'wants'
p2227
I5055
sS'direction'
p2228
I2197
sS'shopping'
p2229
I4351
sS'view.\xe2\x80\x9d'
p2230
I5012
sS'precautions'
p2231
I3810
sS'compromise-seeking'
p2232
I1881
sS'Torez.'
p2233
I1077
sS'Phil'
p2234
I826
sS'stand.\xe2\x80\x9d'
p2235
I4510
sS'treatment.\xe2\x80\x9d'
p2236
I4848
sS'sort'
p2237
I4454
sS'language'
p2238
I3142
sS'dramatic'
p2239
I2281
sS'wake'
p2240
I5049
sS'Analysts'
p2241
I194
sS'emotional,\xe2\x80\x9d'
p2242
I2349
sS'afterward.'
p2243
I1267
sS'quick'
p2244
I3939
sS'thing'
p2245
I4747
sS'former'
p2246
I2626
sS'felling'
p2247
I2520
sS'pilot'
p2248
I3728
sS'case'
p2249
I1714
sS'globally'
p2250
I2705
sS'investigators.'
p2251
I3058
sS'prompting'
p2252
I3881
sS'Kenneth'
p2253
I592
sS'border.'
p2254
I1616
sS'Kremlin.'
p2255
I616
sS'consultant'
p2256
I1937
sS'danger.'
p2257
I2068
sS'motive.'
p2258
I3423
sS'Reagan'
p2259
I880
sS'mourners'
p2260
I3427
sS'disappeared.'
p2261
I2202
sS'stronger'
p2262
I4579
sS'airline.'
p2263
I1299
sS'cast'
p2264
I1718
sS'2GB'
p2265
I79
sS'Aboutaleb.'
p2266
I150
sS'embassy,\xe2\x80\x9d'
p2267
I2343
sS'shall'
p2268
I4320
sS'residence'
p2269
I4112
sS'like.\xe2\x80\x9d'
p2270
I3205
sS'investigating'
p2271
I3052
sS'retaliation'
p2272
I4151
sS'spotlight'
p2273
I4497
sS'Malaysia,\xe2\x80\x9d'
p2274
I683
sS'Najib'
p2275
I750
sS'understand'
p2276
I4909
sS'it.'
p2277
I3080
sS'technical'
p2278
I4692
sS'winds.'
p2279
I5136
sS'\xe2\x80\x9cThere'
p2280
I5249
sS'sincere'
p2281
I4387
sS'engaged'
p2282
I2370
sS'producer.'
p2283
I3864
sS'commander'
p2284
I1845
sS'canceled'
p2285
I1689
sS'good'
p2286
I2715
sS'instruction'
p2287
I3009
sS'drug'
p2288
I2293
sS'somebody'
p2289
I4444
sS'flipped'
p2290
I2589
sS'harder-to-reach'
p2291
I2782
sS'compatriots'
p2292
I1864
sS'really'
p2293
I3979
sS'Kalashnikov'
p2294
I587
sS'missiles'
p2295
I3385
sS'outdoor'
p2296
I3617
sS'repatriating'
p2297
I4082
sS'Malaysia'
p2298
I682
sS'seats'
p2299
I4261
sS'media'
p2300
I3326
sS'granted'
p2301
I2724
sS'legalistic'
p2302
I3186
sS'same'
p2303
I4218
sS'surveillance'
p2304
I4634
sS'pass'
p2305
I3664
sS'respite'
p2306
I4124
sS'inquiry'
p2307
I2991
sS'\xe2\x80\x9cstrong'
p2308
I5295
sS'\xe2\x80\x9cwartime'
p2309
I5304
sS'figures'
p2310
I2540
sS'Variants'
p2311
I1118
sS'everybody.'
p2312
I2422
sS'events'
p2313
I2418
sS'Boulton'
p2314
I271
sS'justice.\xe2\x80\x9d'
p2315
I3113
sS'status'
p2316
I4528
sS'autonomously'
p2317
I1478
sS'extended'
p2318
I2468
sS'survival.'
p2319
I4635
sS'I'
p2320
I518
sS'Lithgow'
p2321
I652
sS'assist'
p2322
I1449
sS'director'
p2323
I2199
sS'nonlethal'
p2324
I3500
sS'profit.'
p2325
I3867
sS'nations,\xe2\x80\x9d'
p2326
I3460
sS'two'
p2327
I4880
sS'\xe2\x80\x9con'
p2328
I5288
sS'utterly'
p2329
I4974
sS'changing'
p2330
I1748
sS'Antony'
p2331
I206
sS'Sergei.'
p2332
I967
sS'six'
p2333
I4400
sS'Schellekens'
p2334
I950
sS'trouble'
p2335
I4858
sS'Drunken'
p2336
I376
sS'down.\xe2\x80\x9d'
p2337
I2273
sS'supports'
p2338
I4625
sS'in'
p2339
I2937
sS'Superville'
p2340
I1034
sS'journalists'
p2341
I3102
sS'Malaysia\xe2\x80\x99s'
p2342
I688
sS'charges'
p2343
I1756
sS'safely'
p2344
I4212
sS'It'
p2345
I553
sS'\xe2\x80\x9cthis'
p2346
I5298
sS'May'
p2347
I708
sS'accountable'
p2348
I1208
sS'costs'
p2349
I1980
sS'Sanne'
p2350
I947
sS'LUMPUR'
p2351
I626
sS'In'
p2352
I526
sS'coordinate'
p2353
I1967
sS'model'
p2354
I3396
sS'convened'
p2355
I1956
sS'well-practiced'
p2356
I5103
sS'bodies'
p2357
I1607
sS'If'
p2358
I521
sS'gates'
p2359
I2680
sS'United'
p2360
I1107
sS'spin.'
p2361
I4489
sS'Service'
p2362
I972
sS'being'
p2363
I1558
sS'money'
p2364
I3404
sS'adjustments'
p2365
I1249
sS'actions'
p2366
I1227
sS'foot'
p2367
I2612
sS'violent'
p2368
I5028
sS'Israelis.'
p2369
I551
sS'showed'
p2370
I4364
sS'border\xe2\x80\x9d'
p2371
I1618
sS'speed'
p2372
I4485
sS'captured'
p2373
I1699
sS'group.'
p2374
I2743
sS'announcement'
p2375
I1373
sS'doctoral'
p2376
I2248
sS'death'
p2377
I2090
sS'sometimes'
p2378
I4448
sS'possible.'
p2379
I3791
sS'rose'
p2380
I4181
sS'wounding'
p2381
I5172
sS'seems'
p2382
I4277
sS'except'
p2383
I2433
sS'it\xe2\x80\x99s'
p2384
I3085
sS'time,\xe2\x80\x9d'
p2385
I4779
sS'November.'
p2386
I778
sS'target-acquisition'
p2387
I4680
sS'setting'
p2388
I4309
sS'bloc'
p2389
I1587
sS'Although'
p2390
I181
sS'overthrow'
p2391
I3630
sS'engulfed'
p2392
I2376
sS'airliners.'
p2393
I1303
sS'extensive'
p2394
I2470
sS'warnings.'
p2395
I5066
sS'disproportionate'
p2396
I2232
sS'themselves.'
p2397
I4732
sS'real'
p2398
I3977
sS'around'
p2399
I1427
sS'represents'
p2400
I4096
sS'read'
p2401
I3973
sS'Many'
p2402
I694
sS'disappearance'
p2403
I2200
sS'providing'
p2404
I3907
sS'dark'
p2405
I2072
sS'action.'
p2406
I1225
sS'traffic'
p2407
I4821
sS'accusations.'
p2408
I1211
sS'groups.'
p2409
I2745
sS'disappointed'
p2410
I2203
sS'U.N.'
p2411
I1092
sS'ruled'
p2412
I4198
sS'acute'
p2413
I1237
sS'sharpened'
p2414
I4326
sS'Twenty-three'
p2415
I1085
sS'Pim'
p2416
I829
sS'world,\xe2\x80\x9d'
p2417
I5160
sS'unbowed'
p2418
I4898
sS'Rampton'
p2419
I875
sS'smell'
p2420
I4419
sS'territory'
p2421
I4709
sS'twin'
p2422
I4877
sS'preference'
p2423
I3814
sS'flight.\xe2\x80\x9d'
p2424
I2587
sS'sternly'
p2425
I4538
sS'Biden'
p2426
I257
sS'maker'
p2427
I3279
sS'London'
p2428
I655
sS'either'
p2429
I2331
sS'fully'
p2430
I2659
sS'poking'
p2431
I3768
sS'endorsed'
p2432
I2365
sS'shadowy'
p2433
I4318
sS'Before'
p2434
I246
sS'receiving'
p2435
I3997
sS'variants'
p2436
I4981
sS'today.\xe2\x80\x9d'
p2437
I4786
sS'noting'
p2438
I3522
sS'Marc'
p2439
I695
sS'West'
p2440
I1149
sS'MOSCOW'
p2441
I679
sS'Since'
p2442
I990
sS'pro-Moscow'
p2443
I3849
sS'Mark'
p2444
I702
sS'McKeon.'
p2445
I714
sS'calculated'
p2446
I1675
sS'Grabovo'
p2447
I477
sS'SA-11s'
p2448
I934
sS'Somalia'
p2449
I1001
sS'person,\xe2\x80\x9d'
p2450
I3706
sS'Dr.'
p2451
I374
sS'images'
p2452
I2913
sS'New'
p2453
I762
sS'intact'
p2454
I3020
sS'daytime'
p2455
I2083
sS'Center.'
p2456
I307
sS'people,\xe2\x80\x9d'
p2457
I3688
sS'peace.'
p2458
I3681
sS'no-fly'
p2459
I3496
sS'primary'
p2460
I3839
sS'windows'
p2461
I5135
sS'Government'
p2462
I476
sS'noon'
p2463
I3501
sS'Earlier'
p2464
I385
sS'Right-wing'
p2465
I901
sS'legal'
p2466
I3185
sS'resonate'
p2467
I4119
sS'Southeast'
p2468
I1005
sS'critical'
p2469
I2033
sS'Gogh'
p2470
I474
sS'happened'
p2471
I2776
sS'station.'
p2472
I4527
sS'origin.'
p2473
I3607
sS'rebel-controlled'
p2474
I3986
sS'Hunt'
p2475
I517
sS'wheat'
p2476
I5114
sS'scientific'
p2477
I4246
sS'business'
p2478
I1663
sS'airways'
p2479
I1319
sS'situation.\xe2\x80\x9d'
p2480
I4399
sS'SA-11.'
p2481
I933
sS'equivalent'
p2482
I2395
sS'strained'
p2483
I4558
sS'high-explosive'
p2484
I2833
sS'\xe2\x80\x9cbunga-bunga\xe2\x80\x9d'
p2485
I5271
sS'notably'
p2486
I3510
sS'Novosibirsk'
p2487
I779
sS'leadership'
p2488
I3173
sS'drums'
p2489
I2295
sS'inherent'
p2490
I2985
sS'apartment.'
p2491
I1394
sS'prepared'
p2492
I3818
sS'feeds'
p2493
I2512
sS'beaches'
p2494
I1536
sS'on'
p2495
I3562
sS'central'
p2496
I1735
sS'toughened'
p2497
I4803
sS'wires'
p2498
I5139
sS'island'
p2499
I3072
sS'industry'
p2500
I2975
sS'provide.'
p2501
I3903
sS'discussed'
p2502
I2216
sS'militants'
p2503
I3356
sS'weaponry'
p2504
I5088
sS'thousands'
p2505
I4759
sS'tragedy.'
p2506
I4824
sS'\xe2\x80\x9cState'
p2507
I5246
sS'escalating'
p2508
I2401
sS'smouldering'
p2509
I4425
sS'airline'
p2510
I1298
sS'act'
p2511
I1221
sS'stakes'
p2512
I4506
sS'mean'
p2513
I3317
sS'scandal.'
p2514
I4234
sS'medical'
p2515
I3329
sS'road'
p2516
I4169
sS'relatives.'
p2517
I4052
sS'Information'
p2518
I533
sS'researching'
p2519
I4111
sS'\xe2\x80\x9cWhere'
p2520
I5260
sS'decreased'
p2521
I2106
sS'burning'
p2522
I1660
sS'No'
p2523
I769
sS'informed'
p2524
I2983
sS'airline\xe2\x80\x99s'
p2525
I1307
sS'individuals.'
p2526
I2972
sS'agreed.'
p2527
I1279
sS'\xe2\x80\x9cEarnings'
p2528
I5207
sS'Ng'
p2529
I764
sS'everyone'
p2530
I2424
sS'accounts'
p2531
I1209
sS'Lumpur'
p2532
I664
sS'determine'
p2533
I2172
sS'flight-planning'
p2534
I2583
sS'names.'
p2535
I3452
sS'training.'
p2536
I4830
sS'Rotterdam'
p2537
I913
sS'Meeting'
p2538
I715
sS'amassed'
p2539
I1351
sS'morning.'
p2540
I3417
sS'dawned'
p2541
I2076
sS'medicine'
p2542
I3331
sS'wartime'
p2543
I5068
sS'legacy'
p2544
I3184
sS'her'
p2545
I2824
sS'Though'
p2546
I1064
sS'assumed'
p2547
I1455
sS'strictly'
p2548
I4571
sS'there'
p2549
I4737
sS'alleged'
p2550
I1326
sS'Breedlove'
p2551
I276
sS'Peninsula'
p2552
I815
sS'start'
p2553
I4514
sS'Sagar'
p2554
I943
sS'impromptu'
p2555
I2935
sS'explosions'
p2556
I2458
sS'lot'
p2557
I3260
sS'Airway'
p2558
I171
sS'decisive'
p2559
I2102
sS'insecure.\xe2\x80\x9d'
p2560
I2992
sS'fish'
p2561
I2568
sS'Obama'
p2562
I784
sS'passports'
p2563
I3671
sS'Ukraine-controlled'
p2564
I1097
sS'continents'
p2565
I1941
sS'mourns'
p2566
I3431
sS'enough'
p2567
I2378
sS'reduce'
p2568
I4015
sS'dangers'
p2569
I2071
sS'delayed'
p2570
I2121
sS'privately'
p2571
I3847
sS'cabinet'
p2572
I1671
sS'change'
p2573
I1744
sS'land'
p2574
I3138
sS'ended'
p2575
I2361
sS'another.'
p2576
I1379
sS'Thailand'
p2577
I1050
sS'Small'
p2578
I995
sS'technologies'
p2579
I4694
sS'flight-tracking'
p2580
I2585
sS'with'
p2581
I5142
sS'\xe2\x80\x9cvolunteers\xe2\x80\x9d'
p2582
I5303
sS'longer'
p2583
I3245
sS'SA-20s'
p2584
I938
sS'explaining'
p2585
I2453
sS'Editing'
p2586
I392
sS'arranged'
p2587
I1428
sS'Pirrong'
p2588
I830
sS'submitted'
p2589
I4594
sS'House'
p2590
I511
sS'Snizhne'
p2591
I997
sS'stake'
p2592
I4505
sS'turbines'
p2593
I4869
sS'ruse'
p2594
I4204
sS'planned.'
p2595
I3747
sS'Society'
p2596
I1000
sS'sadness'
p2597
I4207
sS'Willem-Alexander'
p2598
I1163
sS'emissions'
p2599
I2347
sS'organize'
p2600
I3604
sS'18-foot-long'
p2601
I44
sS'Razak'
p2602
I879
sS'grass'
p2603
I2725
sS'trips'
p2604
I4855
sS'nature'
p2605
I3462
sS'detailed'
p2606
I2165
sS'gone'
p2607
I2714
sS'attacked'
p2608
I1463
sS'required'
p2609
I4102
sS'Samantha'
p2610
I944
sS'videos'
p2611
I5008
sS'Louise'
p2612
I658
sS'certain'
p2613
I1737
sS'business-class'
p2614
I1664
sS'am'
p2615
I1350
sS'Airlines'
p2616
I167
sS'Thursday'
p2617
I1065
sS'an'
p2618
I1359
sS'countermeasures'
p2619
I1987
sS'humiliations'
p2620
I2891
sS'as'
p2621
I1435
sS'ensuing'
p2622
I2380
sS'at'
p2623
I1458
sS'girlfriend'
p2624
I2699
sS'lifetime'
p2625
I3201
sS'himself'
p2626
I2843
sS'appalling'
p2627
I1396
sS'self-declared'
p2628
I4283
sS'again'
p2629
I1268
sS'\xe2\x80\x9cIts'
p2630
I5221
sS'Lai'
p2631
I627
sS'want'
p2632
I5052
sS'topped'
p2633
I4797
sS'personnel'
p2634
I3708
sS'compel'
p2635
I1865
sS'relationship'
p2636
I4048
sS'field'
p2637
I2529
sS'sowing'
p2638
I4469
sS'implied'
p2639
I2924
sS'5'
p2640
I109
sS'Lay'
p2641
I639
sS'arsenal.'
p2642
I1433
sS'you'
p2643
I5188
sS'forcing'
p2644
I2619
sS'dismayed'
p2645
I2225
sS'intention'
p2646
I3029
sS'AN-26.'
p2647
I146
sS'At'
p2648
I220
sS'negotiate,\xe2\x80\x9d'
p2649
I3471
sS'SA-20'
p2650
I937
sS'renowned'
p2651
I4078
sS'4,000'
p2652
I99
sS'Vladimir'
p2653
I1132
sS'separate'
p2654
I4294
sS'students'
p2655
I4587
sS'narrative'
p2656
I3453
sS'midair'
p2657
I3350
sS'35,000'
p2658
I93
sS'there\xe2\x80\x99s'
p2659
I4740
sS'GRABOVO'
p2660
I456
sS'flattened'
p2661
I2579
sS'planners'
p2662
I3748
sS'CNN'
p2663
I296
sS'scrutiny'
p2664
I4254
sS'unless'
p2665
I4930
sS'pool'
p2666
I3775
sS'conclusive'
p2667
I1892
sS'building'
p2668
I1650
sS'bulk'
p2669
I1654
sS'remote'
p2670
I4072
sS'calls'
p2671
I1680
sS'wife'
p2672
I5130
sS'evening.'
p2673
I2414
sS'Darlene'
p2674
I352
sS'Direct'
p2675
I363
sS'precedent'
p2676
I3811
sS'Street'
p2677
I1022
sS'city'
p2678
I1783
sS'profits'
p2679
I3868
sS'track'
p2680
I4815
sS'Luhansk'
p2681
I662
sS'remarkable'
p2682
I4068
sS'once'
p2683
I3564
sS'resolution'
p2684
I4117
sS'refused'
p2685
I4027
sS'&#39;'
p2686
I4
sS'silent.'
p2687
I4383
sS'represent'
p2688
I4093
sS'all'
p2689
I1322
sS'guerrillas.'
p2690
I2750
sS'consider'
p2691
I1926
sS'Obama.'
p2692
I785
sS'caused'
p2693
I1724
sS'lack'
p2694
I3134
sS'month'
p2695
I3407
sS'founded'
p2696
I2633
sS'Jammers'
p2697
I561
sS'debris'
p2698
I2093
sS'deadline'
p2699
I2088
sS'Noor'
p2700
I771
sS'boxcars'
p2701
I1625
sS'Monday\xe2\x80\x99s'
p2702
I734
sS'follow'
p2703
I2606
sS'expressions'
p2704
I2466
sS'bellicose'
p2705
I1561
sS'decisions'
p2706
I2101
sS'children'
p2707
I1764
sS'reluctant'
p2708
I4058
sS'extra'
p2709
I2472
sS'shattered'
p2710
I4328
sS'number'
p2711
I3526
sS'catastrophe'
p2712
I1721
sS'hunting'
p2713
I2896
sS'white'
p2714
I5121
sS'\xe2\x80\x9cOf'
p2715
I5236
sS'laid'
p2716
I3136
sS'including'
p2717
I2949
sS'realities'
p2718
I3978
sS'\xe2\x80\x9cwho'
p2719
I5306
sS'to'
p2720
I4784
sS'tail'
p2721
I4661
sS'deep-rooted'
p2722
I2110
sS'protocols'
p2723
I3899
sS'safety'
p2724
I4214
sS'lawmakers'
p2725
I3165
sS'passed'
p2726
I3666
sS'longtime'
p2727
I3248
sS'weeks'
p2728
I5098
sS'decision.'
p2729
I2100
sS'earlier.'
p2730
I2303
sS'tank.'
p2731
I4676
sS'rejected'
p2732
I4045
sS'returned'
p2733
I4153
sS'homes'
p2734
I2859
sS'far'
p2735
I2501
sS'tour.'
p2736
I4806
sS'horror'
p2737
I2867
sS'109-square-kilometer'
p2738
I31
sS'saved'
p2739
I4227
sS'focus'
p2740
I2601
sS'blockade'
p2741
I1589
sS'\xe2\x80\x98party'
p2742
I5196
sS'fan'
p2743
I2499
sS'decide'
p2744
I2096
sS'fall'
p2745
I2490
sS'Counsellors'
p2746
I338
sS'\xe2\x80\x9cLook'
p2747
I5227
sS'conscience.'
p2748
I1923
sS'condition'
p2749
I1898
sS'Joshua'
p2750
I577
sS'psyche'
p2751
I3915
sS'mid-1990s.'
p2752
I3349
sS'unlike'
p2753
I4931
sS'cable'
p2754
I1672
sS'impact'
p2755
I2918
sS'--'
p2756
I14
sS'issue'
p2757
I3075
sS'officials.'
p2758
I3555
sS'developing'
p2759
I2176
sS'list'
p2760
I3219
sS'seen.'
p2761
I4279
sS'large'
p2762
I3144
sS'these'
p2763
I4741
sS'adjust'
p2764
I1248
sS'\xe2\x80\x9cBuk\xe2\x80\x9d'
p2765
I5201
sS'further'
p2766
I2665
sS'referred'
p2767
I4019
sS'20th'
p2768
I61
sS'owned'
p2769
I3636
sS'quicker'
p2770
I3940
sS'broader'
p2771
I1642
sS'harder'
p2772
I2781
sS'responsibility.'
p2773
I4132
sS'built-in'
p2774
I1653
sS'193'
p2775
I46
sS'192'
p2776
I45
sS'past'
p2777
I3672
sS'go'
p2778
I2707
sS'Only'
p2779
I796
sS'settled'
p2780
I4310
sS'Andriy'
p2781
I200
sS'Heijne'
p2782
I501
sS'East'
p2783
I387
sS'investment'
p2784
I3060
sS'crime,\xe2\x80\x9d'
p2785
I2024
sS'will'
p2786
I5132
sS'what'
p2787
I5111
sS'Korea'
p2788
I608
sS'stood'
p2789
I4547
sS'singer'
p2790
I4388
sS'investing'
p2791
I3059
sS'deeply'
p2792
I2113
sS'sides'
p2793
I4369
sS'carcass'
p2794
I1702
sS'brief'
p2795
I1632
sS'emotions'
p2796
I2350
sS'crush'
p2797
I2045
sS'version'
p2798
I4996
sS'issues'
p2799
I3077
sS'terrorists.'
p2800
I4715
sS'scientists'
p2801
I4247
sS'learned'
p2802
I3175
sS'guns'
p2803
I2758
sS'contrast'
p2804
I1947
sS'movement'
p2805
I3434
sS'elsewhere.'
p2806
I2339
sS'turmoil'
p2807
I4870
sS'full'
p2808
I2657
sS'Prosecutors'
p2809
I853
sS'scoffing'
p2810
I4249
sS'Australians'
p2811
I226
sS'\xe2\x80\x9cis'
p2812
I5285
sS'\xe2\x80\x9cCondolences'
p2813
I5204
sS'lobbyist'
p2814
I3234
sS'subsequent'
p2815
I4595
sS'answers'
p2816
I1381
sS'According'
p2817
I151
sS'hours'
p2818
I2878
sS'newspaper'
p2819
I3487
sS'disastrous'
p2820
I2209
sS'fratricidal'
p2821
I2638
sS'unaffected.'
p2822
I4891
sS'CEASE-FIRE'
p2823
I294
sS'soon'
p2824
I4450
sS'standard'
p2825
I4511
sS'shows'
p2826
I4366
sS'backlash'
p2827
I1502
sS'operational'
p2828
I3583
sS'search'
p2829
I4257
sS'77-year-old'
p2830
I127
sS'prosecutors'
p2831
I3892
sS'ahead'
p2832
I1282
sS'vaporized'
p2833
I4980
sS'allows'
p2834
I1336
sS'provider'
p2835
I3906
sS'brutal'
p2836
I1649
sS'infringe'
p2837
I2984
sS'prior'
p2838
I3842
sS'airport'
p2839
I1310
sS'Voorbach'
p2840
I1134
sS'horrified'
p2841
I2866
sS'published'
p2842
I3919
sS'action'
p2843
I1224
sS'narrow'
p2844
I3454
sS'options'
p2845
I3593
sS'Victor'
p2846
I1126
sS'via'
p2847
I5000
sS'Aeroflot'
p2848
I154
sS'Constitution'
p2849
I329
sS'family'
p2850
I2496
sS'open.\xe2\x80\x9d'
p2851
I3573
sS'requiring'
p2852
I4103
sS'clique'
p2853
I1804
sS'stonewalled'
p2854
I4546
sS'while'
p2855
I5120
sS'traumatized'
p2856
I4841
sS'screens'
p2857
I4253
sS'put'
p2858
I3929
sS'America.'
p2859
I185
sS'aimed'
p2860
I1288
sS'Tol'
p2861
I1073
sS'chunks'
p2862
I1771
sS'Reuters.'
p2863
I899
sS'armed'
p2864
I1419
sS'research'
p2865
I4108
sS'\xe2\x80\x9cdue'
p2866
I5278
sS'readily'
p2867
I3974
sS'Europe'
p2868
I406
sS'somber'
p2869
I4442
sS'wanted'
p2870
I5054
sS'takes'
p2871
I4665
sS'halt.'
p2872
I2767
sS'contains'
p2873
I1939
sS'texting'
p2874
I4719
sS'flowered'
p2875
I2594
sS'stepped'
p2876
I4535
sS'T-shirt'
p2877
I1040
sS'chaotic'
p2878
I1752
sS'flowers.'
p2879
I2596
sS'Ukraine.'
p2880
I1098
sS'trip'
p2881
I4853
sS'6'
p2882
I114
sS'Russian'
p2883
I921
sS'Immediately'
p2884
I525
sS'forces'
p2885
I2617
sS'tools.'
p2886
I4795
sS'more'
p2887
I3413
sS'ahead.'
p2888
I1283
sS'speaking'
p2889
I4474
sS'Boeing'
p2890
I267
sS'knows'
p2891
I3133
sS'ejected'
p2892
I2332
sS'tampering'
p2893
I4673
sS'Philippines'
p2894
I828
sS'text.'
p2895
I4718
sS'site'
p2896
I4392
sS'\xe2\x80\x9cto'
p2897
I5301
sS'quarterly'
p2898
I3932
sS'American'
p2899
I186
sS'Israel.\xe2\x80\x9d'
p2900
I549
sS'VEB'
p2901
I1114
sS'basically'
p2902
I1524
sS'broke'
p2903
I1643
sS'questions.'
p2904
I3938
sS'known'
p2905
I3131
sS'factories'
p2906
I2483
sS'pot-holed'
p2907
I3797
sS'town'
p2908
I4811
sS'helped'
p2909
I2823
sS'keeping'
p2910
I3116
sS'include'
p2911
I2947
sS'debates'
p2912
I2092
sS'cluster'
p2913
I1817
sS'science'
p2914
I4245
sS'der'
p2915
I2153
sS'launch'
p2916
I3157
sS'coalition'
p2917
I1821
sS'intercepted'
p2918
I3030
sS'mall'
p2919
I3283
sS'escorted'
p2920
I2404
sS'nine'
p2921
I3494
sS'resources'
p2922
I4121
sS'den'
p2923
I2132
sS'Russia.'
p2924
I920
sS'strategies'
p2925
I4562
sS'nothing.'
p2926
I3514
sS'specialized'
p2927
I4478
sS'society,\xe2\x80\x9d'
p2928
I4432
sS'history'
p2929
I2849
sS'Conference'
p2930
I328
sS'buttress'
p2931
I1669
sS'747'
p2932
I125
sS'stacking'
p2933
I4503
sS'share'
p2934
I4322
sS'accept'
p2935
I1194
sS'them.\xe2\x80\x9d'
p2936
I4730
sS'states'
p2937
I4525
sS'pushed'
p2938
I3927
sS'minimum'
p2939
I3375
sS'hours.'
p2940
I2879
sS'hourlong'
p2941
I2877
sS'destination'
p2942
I2162
sS'airplane'
p2943
I1309
sS'scar'
p2944
I4236
sS'condemn'
p2945
I1894
sS'!'
p2946
I0
sS'huge'
p2947
I2884
sS'Parliament'
p2948
I810
sS'court'
p2949
I2000
sS'Federation'
p2950
I425
sS'awkward'
p2951
I1495
sS'desperation'
p2952
I2159
sS'fire-control'
p2953
I2557
sS'vowed'
p2954
I5041
sS'plans'
p2955
I3750
sS'warhead'
p2956
I5060
sS'pressing'
p2957
I3827
sS'river'
p2958
I4168
sS'dismissed'
p2959
I2226
sS'Ukrainians'
p2960
I1102
sS'possibly'
p2961
I3792
sS'billionaire'
p2962
I1577
sS'underage'
p2963
I4904
sS'steps.'
p2964
I4537
sS'talks.'
p2965
I4670
sS'PEACE'
p2966
I806
sS'site.'
p2967
I4394
sS'intended'
p2968
I3025
sS'country,\xe2\x80\x9d'
p2969
I1992
sS'\xe2\x80\x9cYes'
p2970
I5262
sS'Israel'
p2971
I547
sS'Foreign'
p2972
I441
sS'reflect'
p2973
I4022
sS'plane'
p2974
I3739
sS'Emirates'
p2975
I403
sS'Daisy'
p2976
I347
sS'friends\xe2\x80\x99'
p2977
I2648
sS'Syria'
p2978
I1039
sS'Residents'
p2979
I896
sS'impact.'
p2980
I2920
sS'unacceptable'
p2981
I4889
sS'Dow'
p2982
I373
sS'a'
p2983
I1181
sS'thought'
p2984
I4757
sS'Everyone'
p2985
I416
sS'back.'
p2986
I1498
sS'sneak'
p2987
I4427
sS'high-precision'
p2988
I2836
sS'jihadist'
p2989
I3097
sS'influence.'
p2990
I2981
sS'overnight'
p2991
I3628
sS'perhaps'
p2992
I3697
sS'shore'
p2993
I4352
sS'responsibility'
p2994
I4131
sS'act.'
p2995
I1223
sS'pay'
p2996
I3678
sS'banks'
p2997
I1513
sS'H.I.V.'
p2998
I487
sS'crafty'
p2999
I2007
sS'Charap'
p3000
I310
sS'What'
p3001
I1152
sS'rifles'
p3002
I4160
sS'played'
p3003
I3754
sS'help'
p3004
I2822
sS'SA-17'
p3005
I935
sS'weakening'
p3006
I5085
sS'flowers'
p3007
I2595
sS'Katya'
p3008
I589
sS'major'
p3009
I3276
sS'Poor\xe2\x80\x99s'
p3010
I834
sS'top'
p3011
I4796
sS'held'
p3012
I2817
sS'already'
p3013
I1342
sS'through'
p3014
I4770
sS'war.'
p3015
I5058
sS'committee'
p3016
I1858
sS'committed'
p3017
I1857
sS'militarily.'
p3018
I3359
sS'authorities.'
p3019
I1475
sS'forgiving'
p3020
I2623
sS'Trinity'
p3021
I1081
sS'level'
p3022
I3193
sS'24'
p3023
I67
sS'25'
p3024
I68
sS'&#34;'
p3025
I3
sS'27'
p3026
I72
sS'20'
p3027
I52
sS'state-run'
p3028
I4521
sS'22'
p3029
I63
sS'23'
p3030
I65
sS'border'
p3031
I1615
sS'probe'
p3032
I3854
sS'28'
p3033
I74
sS'Carnegie'
p3034
I303
sS'actually'
p3035
I1236
sS'clashes'
p3036
I1793
sS'resort'
p3037
I4120
sS'territorial'
p3038
I4708
sS'individuals'
p3039
I2971
sS'systems'
p3040
I4654
sS'Illie'
p3041
I524
sS'van'
p3042
I4977
sS'release'
p3043
I4053
sS'scrutiny.\xe2\x80\x9d'
p3044
I4255
sS'Brussels'
p3045
I284
sS'might'
p3046
I3352
sS'pro-Russian'
p3047
I3851
sS'ally'
p3048
I1337
sS'rockets.'
p3049
I4175
sS'colleague'
p3050
I1829
sS'evening'
p3051
I2413
sS'Appearing'
p3052
I208
sS'Bas'
p3053
I240
sS'nestled'
p3054
I3478
sS'entire'
p3055
I2386
sS'food'
p3056
I2611
sS'42-square-mile'
p3057
I104
sS'largest'
p3058
I3147
sS'Michael'
p3059
I719
sS'perceived'
p3060
I3694
sS'arsenal'
p3061
I1432
sS'geopolitical'
p3062
I2689
sS'units'
p3063
I4925
sS'walls'
p3064
I5050
sS'\xe2\x80\x9cI\xe2\x80\x99m'
p3065
I5223
sS'signing'
p3066
I4378
sS'Ban'
p3067
I237
sS'Putin.'
p3068
I859
sS'discussion.\xe2\x80\x9d'
p3069
I2219
sS'countercharges'
p3070
I1986
sS'association'
p3071
I1454
sS'instructions'
p3072
I3010
sS'mystery'
p3073
I3447
sS'Gen.'
p3074
I463
sS'Army.'
p3075
I211
sS'gets'
p3076
I2694
sS'carcass.'
p3077
I1703
sS'underway.'
p3078
I4913
sS'system.'
p3079
I4653
sS'always'
p3080
I1349
sS'intervene'
p3081
I3038
sS'statement'
p3082
I4522
sS'Akmar'
p3083
I173
sS'multiple-rocket'
p3084
I3440
sS'capability'
p3085
I1693
sS'vociferously'
p3086
I5034
sS'someone'
p3087
I4446
sS'stopped'
p3088
I4549
sS'Council'
p3089
I337
sS'down,\xe2\x80\x9d'
p3090
I2271
sS'found'
p3091
I2632
sS'shocking'
p3092
I4341
sS'Battalion'
p3093
I243
sS'characterized'
p3094
I1754
sS'investigators'
p3095
I3057
sS'heavy'
p3096
I2811
sS'reactions'
p3097
I3972
sS'harm'
p3098
I2784
sS'determination.'
p3099
I2170
sS'Sergiev'
p3100
I970
sS'detect'
p3101
I2168
sS'weight'
p3102
I5100
sS'reference'
p3103
I4018
sS'proposals'
p3104
I3889
sS'energy'
p3105
I2368
sS'hard'
p3106
I2780
sS'positioned'
p3107
I3786
sS'idea'
p3108
I2903
sS'used'
p3109
I4967
sS'brother'
p3110
I1645
sS'engaging'
p3111
I2372
sS'florist'
p3112
I2591
sS'programs'
p3113
I3871
sS'Joseph'
p3114
I575
sS'countrymen'
p3115
I1994
sS'touched'
p3116
I4801
sS'short-range-missile'
p3117
I4356
sS'Washington.'
p3118
I1143
sS'Danica'
p3119
I351
sS'operation'
p3120
I3580
sS'beyond'
p3121
I1571
sS'event'
p3122
I2415
sS'More'
p3123
I735
sS'HRABOVE'
p3124
I490
sS'flower'
p3125
I2593
sS'shoes-off'
p3126
I4343
sS'Viktor'
p3127
I1128
sS'unnatural'
p3128
I4933
sS'Samuel'
p3129
I945
sS'unknown'
p3130
I4929
sS'consequences\xe2\x80\x9d'
p3131
I1925
sS'Yuriy'
p3132
I1177
sS'participants'
p3133
I3652
sS'Dramatic'
p3134
I375
sS'health'
p3135
I2801
sS'doubters.'
p3136
I2269
sS'7'
p3137
I122
sS'dying'
p3138
I2300
sS'Prof.'
p3139
I850
sS'plotting'
p3140
I3759
sS'Cool'
p3141
I330
sS'Ukraine'
p3142
I1095
sS'responsible.'
p3143
I4134
sS'markets,\xe2\x80\x9d'
p3144
I3301
sS'Bryce'
p3145
I286
sS'risen'
p3146
I4166
sS'favored'
p3147
I2510
sS'Kharkiv'
p3148
I596
sS'lesser'
p3149
I3189
sS'cockpit'
p3150
I1822
sS'houses'
p3151
I2880
sS'reason'
p3152
I3980
sS'base'
p3153
I1520
sS'Nine'
p3154
I768
sS'proxy'
p3155
I3914
sS'members'
p3156
I3338
sS'airway'
p3157
I1318
sS'ask'
p3158
I1437
sS'reaction.'
p3159
I3971
sS'speculation'
p3160
I4482
sS'curtailed'
p3161
I2052
sS'Press.'
p3162
I844
sS'surface-to-air'
p3163
I4628
sS'driven'
p3164
I2288
sS'bragged'
p3165
I1629
sS'Pharmaceuticals.'
p3166
I825
sS'jet'
p3167
I3087
sS'Evans'
p3168
I413
sS'People'
p3169
I817
sS'\xe2\x80\x9cquite'
p3170
I5291
sS'persists'
p3171
I3705
sS'terrible'
p3172
I4707
sS'noted'
p3173
I3512
sS'conducted'
p3174
I1904
sS'unclear.'
p3175
I4901
sS'expecting'
p3176
I2444
sS'threat'
p3177
I4761
sS'report.'
p3178
I4086
sS'gruesome'
p3179
I2748
sS'fallen'
p3180
I2491
sS'interviews'
p3181
I3046
sS'reinforced'
p3182
I4044
sS'historical'
p3183
I2848
sS'prevent'
p3184
I3834
sS'threatening'
p3185
I4764
sS'Siberian'
p3186
I984
sS'flashes'
p3187
I2576
sS'feet'
p3188
I2515
sS'ranges'
p3189
I3956
sS'SA-17s'
p3190
I936
sS'Indian'
p3191
I529
sS'done'
p3192
I2260
sS'closely.'
p3193
I1808
sS'rerouted'
p3194
I4105
sS'climbing'
p3195
I1801
sS'Board.'
p3196
I264
sS'action.\xe2\x80\x9d'
p3197
I1226
sS'Zulieba'
p3198
I1178
sS'Sinai'
p3199
I989
sS'secretary'
p3200
I4265
sS'militant'
p3201
I3355
sS'story'
p3202
I4555
sS'Transportation'
p3203
I1079
sS'safe.'
p3204
I4209
sS'bloodied'
p3205
I1595
sS'family.'
p3206
I2497
sS'financed'
p3207
I2548
sS'smoother'
p3208
I4423
sS'Putin,\xe2\x80\x9d'
p3209
I858
sS'litany'
p3210
I3224
sS'airborne'
p3211
I1295
sS'intense'
p3212
I3026
sS'Aircraft'
p3213
I166
sS'assumption'
p3214
I1456
sS'Daisy.'
p3215
I348
sS'erupted'
p3216
I2397
sS'Delta'
p3217
I360
sS'Belgium'
p3218
I249
sS'fought'
p3219
I2631
sS'property.'
p3220
I3887
sS'summit'
p3221
I4612
sS'shifted'
p3222
I4335
sS'complained'
p3223
I1868
sS'disputed.'
p3224
I2235
sS'pipelines'
p3225
I3732
sS'option'
p3226
I3592
sS'first.'
p3227
I2567
sS'behind'
p3228
I1557
sS'exploded'
p3229
I2457
sS'hotel'
p3230
I2875
sS'interviewed'
p3231
I3045
sS'citizens.'
p3232
I1782
sS'veteran'
p3233
I4998
sS'sizable'
p3234
I4403
sS'part'
p3235
I3651
sS'immediately.'
p3236
I2916
sS'favorable'
p3237
I2509
sS'situation,\xe2\x80\x9d'
p3238
I4398
sS'doctors'
p3239
I2249
sS'Keir'
p3240
I591
sS'howitzers'
p3241
I2883
sS'believe'
p3242
I1559
sS'convinced'
p3243
I1960
sS'Gazprombank'
p3244
I462
sS'center'
p3245
I1733
sS'king'
p3246
I3127
sS'financing'
p3247
I2550
sS'grew'
p3248
I2732
sS'condolences'
p3249
I1901
sS'double'
p3250
I2267
sS'anticipate'
p3251
I1383
sS'calculation.'
p3252
I1676
sS'Huib'
p3253
I516
sS'imply'
p3254
I2925
sS'scheduled.'
p3255
I4244
sS'jurisdiction'
p3256
I3108
sS'minimize'
p3257
I3374
sS'express'
p3258
I2464
sS'Officials'
p3259
I791
sS'contrary'
p3260
I1946
sS'risks'
p3261
I4167
sS'sole'
p3262
I4436
sS'comply,\xe2\x80\x9d'
p3263
I1875
sS'head.'
p3264
I2797
sS'listen'
p3265
I3221
sS'playing'
p3266
I3755
sS'tumble.'
p3267
I4864
sS'0.92'
p3268
I22
sS'Latt'
p3269
I634
sS'withered'
p3270
I5143
sS'obstacles'
p3271
I3533
sS'urban'
p3272
I4959
sS'strengthen'
p3273
I4567
sS'takeoff'
p3274
I4664
sS'representatives.'
p3275
I4095
sS'Douglas'
p3276
I372
sS'roughly'
p3277
I4182
sS'mother.'
p3278
I3422
sS'airstrike'
p3279
I1317
sS'room'
p3280
I4179
sS'never-found'
p3281
I3483
sS'sheet'
p3282
I4331
sS'orders'
p3283
I3599
sS'vulnerable'
p3284
I5043
sS'Odessa'
p3285
I788
sS'lie'
p3286
I3195
sS'won\xe2\x80\x99t'
p3287
I5149
sS'nights'
p3288
I3492
sS'built'
p3289
I1652
sS'Power'
p3290
I840
sS'Ukrainian'
p3291
I1101
sS'destabilizing'
p3292
I2161
sS'severely'
p3293
I4315
sS'officers'
p3294
I3551
sS'port'
p3295
I3780
sS'lit'
p3296
I3223
sS'also'
p3297
I1343
sS'insurgents.'
p3298
I3017
sS'Germany'
p3299
I468
sS'chairman'
p3300
I1740
sS'Kim'
p3301
I599
sS'deepening'
p3302
I2111
sS'With'
p3303
I1166
sS'villager'
p3304
I5020
sS'Germans'
p3305
I467
sS'relief'
p3306
I4056
sS'seized'
p3307
I4282
sS'777'
p3308
I128
sS'added'
p3309
I1239
sS'Ukraine,\xe2\x80\x9d'
p3310
I1096
sS'intervened'
p3311
I3039
sS'monastery'
p3312
I3403
sS'victim'
p3313
I5002
sS'measures'
p3314
I3324
sS'reach'
p3315
I3964
sS'nighttime'
p3316
I3493
sS'took'
p3317
I4794
sS'most'
p3318
I3420
sS'75'
p3319
I126
sS'immediate'
p3320
I2914
sS'fight.'
p3321
I2535
sS'32,000-foot'
p3322
I88
sS'nothing'
p3323
I3513
sS'accepting'
p3324
I1196
sS'The'
p3325
I1053
sS'ROTTERDAM'
p3326
I868
sS'extremely'
p3327
I2473
sS'approved'
p3328
I1408
sS'refrigerator'
p3329
I4026
sS'exports.\xe2\x80\x9d'
p3330
I2461
sS'deviations'
p3331
I2179
sS'wreckage'
p3332
I5173
sS'give'
p3333
I2701
sS'\xe2\x80\x9cMeet'
p3334
I5230
sS'seize'
p3335
I4281
sS'Egypt'
p3336
I394
sS'clear'
p3337
I1796
sS'humanitarian'
p3338
I2888
sS'cover'
p3339
I2002
sS'shortly'
p3340
I4358
sS'km'
p3341
I3128
sS'\xe2\x80\x9cLots'
p3342
I5228
sS'officer.'
p3343
I3550
sS'security.'
p3344
I4270
sS'barred'
p3345
I1518
sS'lounge'
p3346
I3262
sS'ROLE'
p3347
I867
sS'missile.'
p3348
I3384
sS'bang.'
p3349
I1510
sS'charged'
p3350
I1755
sS'attacking'
p3351
I1464
sS'lying'
p3352
I3270
sS'standoff'
p3353
I4513
sS'email.'
p3354
I2341
sS'think'
p3355
I4749
sS'particularly'
p3356
I3653
sS'rebels'
p3357
I3990
sS'didn\xe2\x80\x99t'
p3358
I2181
sS'summer'
p3359
I4611
sS'stopped.'
p3360
I4550
sS'\xe2\x80\x9cMaybe'
p3361
I5229
sS'scorched'
p3362
I4251
sS'scattered'
p3363
I4239
sS'slapped'
p3364
I4411
sS'cruised'
p3365
I2043
sS'Shariman'
p3366
I978
sS'businesses'
p3367
I1665
sS'Hill'
p3368
I506
sS'shopped'
p3369
I4350
sS'be.'
p3370
I1535
sS'carefully'
p3371
I1705
sS'routinely'
p3372
I4192
sS'hopped'
p3373
I2863
sS'stronghold.'
p3374
I4581
sS'find'
p3375
I2551
sS'visible.'
p3376
I5030
sS'Kingdom'
p3377
I601
sS'current'
p3378
I2051
sS'giant'
p3379
I2696
sS'northern'
p3380
I3506
sS'music'
p3381
I3442
sS'justice'
p3382
I3110
sS'nervous'
p3383
I3477
sS'Muslim'
p3384
I741
sS'grotesque'
p3385
I2737
sS'assertion'
p3386
I1444
sS'French'
p3387
I450
sS'failed'
p3388
I2486
sS'flights'
p3389
I2588
sS'pretty'
p3390
I3833
sS'retaliate.'
p3391
I4150
sS'8'
p3392
I131
sS'circle'
p3393
I1775
sS'columns'
p3394
I1837
sS'independence.'
p3395
I2959
sS'Prime'
p3396
I846
sS'boarding'
p3397
I1603
sS'\xe2\x80\x9cin'
p3398
I5283
sS'executive'
p3399
I2435
sS'hit'
p3400
I2850
sS'gains'
p3401
I2672
sS'distance'
p3402
I2237
sS'refers'
p3403
I4021
sS'banned'
p3404
I1514
sS'allies,\xe2\x80\x9d'
p3405
I1332
sS'kind'
p3406
I3126
sS'famous'
p3407
I2498
sS'While'
p3408
I1157
sS'rest'
p3409
I4135
sS'annexation'
p3410
I1369
sS'\xe2\x80\x9cJoep'
p3411
I5224
sS'during'
p3412
I2299
sS'firms'
p3413
I2565
sS'\xe2\x80\x9cUnfortunately'
p3414
I5253
sS'Maxima'
p3415
I707
sS'Francis'
p3416
I446
sS'frankly'
p3417
I2637
sS'vague'
p3418
I4976
sS'targets.'
p3419
I4685
sS'tumult'
p3420
I4866
sS'away.\xe2\x80\x9d'
p3421
I1493
sS'teams'
p3422
I4689
sS'batteries'
p3423
I1526
sS'flight.'
p3424
I2586
sS'watched'
p3425
I5074
sS'banking'
p3426
I1512
sS'J.'
p3427
I558
sS'stored'
p3428
I4553
sS'\xe2\x80\x9cwould'
p3429
I5307
sS'paroxysms'
p3430
I3650
sS'gathered'
p3431
I2682
sS'MIG-29'
p3432
I678
sS'wrote'
p3433
I5178
sS'restaurants'
p3434
I4137
sS'forensic'
p3435
I2621
sS'For'
p3436
I439
sS'guidance.'
p3437
I2751
sS'throwing'
p3438
I4771
sS'intelligence'
p3439
I3022
sS'opposing'
p3440
I3588
sS'activists'
p3441
I1233
sS'instituted'
p3442
I3006
sS'territory.'
p3443
I4710
sS'Russia\xe2\x80\x99s'
p3444
I928
sS'play'
p3445
I3753
sS'see'
p3446
I4271
sS'defense'
p3447
I2116
sS'Angered'
p3448
I202
sS'plummeted'
p3449
I3760
sS'Africa.'
p3450
I159
sS'response.'
p3451
I4130
sS'close'
p3452
I1805
sS'Neither'
p3453
I758
sS'authentic.'
p3454
I1473
sS'arm'
p3455
I1418
sS'2.5'
p3456
I51
sS'regularly'
p3457
I4039
sS'recording'
p3458
I4007
sS'#'
p3459
I1
sS'threats'
p3460
I4766
sS'Rescue'
p3461
I895
sS'expert'
p3462
I2448
sS'matter'
p3463
I3309
sS'pictures'
p3464
I3719
sS'Joppe'
p3465
I573
sS'familiarity'
p3466
I2494
sS'height.'
p3467
I2816
sS'rejecting'
p3468
I4046
sS'coordination'
p3469
I1970
sS'fans'
p3470
I2500
sS'Part'
p3471
I811
sS'various'
p3472
I4983
sS'low-level'
p3473
I3265
sS'Tuberculosis'
p3474
I1082
sS'distraught'
p3475
I2242
sS'burned'
p3476
I1659
sS'halfway'
p3477
I2765
sS'conditions'
p3478
I1899
sS'corruption'
p3479
I1977
sS'supposed'
p3480
I4626
sS'available'
p3481
I1480
sS'King'
p3482
I600
sS'pushing'
p3483
I3928
sS'recently'
p3484
I3999
sS'creating'
p3485
I2016
sS'parts.'
p3486
I3660
sS'institute.'
p3487
I3005
sS'initially'
p3488
I2987
sS'\xe2\x80\x9cof'
p3489
I5287
sS'attention'
p3490
I1469
sS'Florida'
p3491
I436
sS'Against'
p3492
I161
sS'days.'
p3493
I2082
sS'new-looking'
p3494
I3485
sS'aircraft'
p3495
I1296
sS'rapid'
p3496
I3958
sS'opposition'
p3497
I3590
sS'incinerated'
p3498
I2946
sS'distinguish'
p3499
I2240
sS'Ingebord'
p3500
I534
sS'Dmitry'
p3501
I367
sS'relying'
p3502
I4060
sS'observer'
p3503
I3532
sS'abruptly'
p3504
I1191
sS'both'
p3505
I1621
sS'prospects'
p3506
I3893
sS'toward'
p3507
I4807
sS'improved'
p3508
I2936
sS'restaurant'
p3509
I4136
sS'treated'
p3510
I4846
sS'annual'
p3511
I1375
sS'indications\xe2\x80\x9d'
p3512
I2967
sS'President\xe2\x80\x99s'
p3513
I842
sS'Steve'
p3514
I1017
sS'shoes.'
p3515
I4344
sS'connection'
p3516
I1921
sS'became'
p3517
I1540
sS'Chin'
p3518
I314
sS'Bociurkiw'
p3519
I265
sS'collection'
p3520
I1833
sS'Yum'
p3521
I1176
sS'Graham'
p3522
I480
sS'Yet'
p3523
I1173
sS'operation.'
p3524
I3581
sS'vehicles'
p3525
I4988
sS'danced'
p3526
I2066
sS'Affairs'
p3527
I155
sS'battery'
p3528
I1527
sS'senseless'
p3529
I4289
sS'kilometers'
p3530
I3123
sS'silence.'
p3531
I4381
sS'community'
p3532
I1860
sS'\xe2\x80\x9cRight'
p3533
I5243
sS'reported'
p3534
I4087
sS'likes'
p3535
I3208
sS'church'
p3536
I1772
sS'asserted'
p3537
I1443
sS'volunteered'
p3538
I5038
sS'pleasantries'
p3539
I3756
sS'Was'
p3540
I1141
sS'War'
p3541
I1139
sS'Onno'
p3542
I797
sS'justice,\xe2\x80\x9d'
p3543
I3111
sS'bolster'
p3544
I1610
sS'startling'
p3545
I4516
sS'there.'
p3546
I4738
sS'Europe.'
p3547
I408
sS'described'
p3548
I2155
sS'half-empty'
p3549
I2761
sS'transcript.'
p3550
I4832
sS'\xe2\x80\x9caggressive'
p3551
I5266
sS'create'
p3552
I2014
sS'Hoff'
p3553
I508
sS'Strelkov\xe2\x80\x99s'
p3554
I1024
sS'due'
p3555
I2297
sS'strategy'
p3556
I4563
sS'hitting'
p3557
I2851
sS'rattle'
p3558
I3961
sS'reduction'
p3559
I4016
sS'California'
p3560
I297
sS'Plan'
p3561
I831
sS'crime.\xe2\x80\x9d'
p3562
I2026
sS'collected'
p3563
I1832
sS'pile'
p3564
I3724
sS'assassinated'
p3565
I1441
sS'meeting'
p3566
I3334
sS'important'
p3567
I2927
sS'waypoint'
p3568
I5081
sS'combatants'
p3569
I1839
sS'resting'
p3570
I4138
sS'compromises'
p3571
I1883
sS'Lyall'
p3572
I667
sS'flight'
p3573
I2582
sS'sending'
p3574
I4286
sS'fire'
p3575
I2556
sS'citizen'
p3576
I1780
sS'gas'
p3577
I2678
sS'remark'
p3578
I4067
sS'moment'
p3579
I3400
sS'whatever'
p3580
I5112
sS'lives'
p3581
I3229
sS'compromised'
p3582
I1882
sS'instructor'
p3583
I3011
sS'assigning'
p3584
I1448
sS'struck'
p3585
I4583
sS'Michel'
p3586
I720
sS'Pfeiffer'
p3587
I824
sS'yards'
p3588
I5181
sS'page.'
p3589
I3638
sS'\xe2\x80\x9cLimited'
p3590
I5226
sS'politician'
p3591
I3772
sS'look'
p3592
I3249
sS'since'
p3593
I4386
sS'talking'
p3594
I4668
sS'Vostok'
p3595
I1135
sS'actions,\xe2\x80\x9d'
p3596
I1228
sS'straight'
p3597
I4557
sS'remains.'
p3598
I4066
sS'seeking'
p3599
I4274
sS'governor'
p3600
I2723
sS'armor.'
p3601
I1421
sS'Donetsk'
p3602
I369
sS'Fighters'
p3603
I431
sS'skies'
p3604
I4406
sS'Rijksmuseum'
p3605
I902
sS'Studies.'
p3606
I1026
sS'mint-colored'
p3607
I3380
sS'Cold'
p3608
I326
sS'Russian-made'
p3609
I925
sS'further.'
p3610
I2666
sS'guide'
p3611
I2752
sS'six-day'
p3612
I4401
sS'scheduled'
p3613
I4243
sS'larger'
p3614
I3146
sS'costly'
p3615
I1979
sS'hoping'
p3616
I2862
sS'backing'
p3617
I1501
sS'intelligence.'
p3618
I3024
sS'overlooked'
p3619
I3627
sS'Cheney'
p3620
I312
sS'\xe2\x80\x9cAll'
p3621
I5199
sS'went'
p3622
I5105
sS'too,\xe2\x80\x9d'
p3623
I4793
sS'itself'
p3624
I3083
sS'results.\xe2\x80\x9d'
p3625
I4147
sS'ones.'
p3626
I3568
sS'minister\xe2\x80\x99s'
p3627
I3379
sS'ready'
p3628
I3975
sS'Elliott'
p3629
I398
sS'leaving'
p3630
I3179
sS'route.'
p3631
I4186
sS'weapon'
p3632
I5086
sS'increased'
p3633
I2951
sS'result'
p3634
I4146
sS'away.'
p3635
I1492
sS'uncertain.'
p3636
I4899
sS'strikes'
p3637
I4574
sS'clear.'
p3638
I1798
sS'longer-range'
p3639
I3246
sS'complicity'
p3640
I1874
sS'elevated'
p3641
I2336
sS'shorter'
p3642
I4357
sS'room.'
p3643
I4180
sS'reachable'
p3644
I3966
sS'corridor'
p3645
I1974
sS'32,000'
p3646
I87
sS'Bontes'
p3647
I268
sS'advise'
p3648
I1255
sS'FAA'
p3649
I420
sS'gestures'
p3650
I2692
sS'conflict'
p3651
I1909
sS'3.'
p3652
I81
sS'development'
p3653
I2177
sS'sophisticated'
p3654
I4451
sS'Cor'
p3655
I333
sS'stupefied'
p3656
I4590
sS'Then'
p3657
I1055
sS'comprehensive'
p3658
I1879
sS'gallery'
p3659
I2673
sS'Lines'
p3660
I650
sS'usually'
p3661
I4973
sS'26,000'
p3662
I70
sS'flown'
p3663
I2598
sS'arrived'
p3664
I1430
sS'user'
p3665
I4970
sS'fabrication'
p3666
I2476
sS'recent'
p3667
I3998
sS'early'
p3668
I2304
sS'MH17.'
p3669
I675
sS'task'
p3670
I4686
sS'Fed\xe2\x80\x99s'
p3671
I427
sS'n&#39;t'
p3672
I3448
sS'older'
p3673
I3560
sS'rules'
p3674
I4199
sS'people.'
p3675
I3689
sS'alleging'
p3676
I1328
sS'analysis'
p3677
I1360
sS'edgy'
p3678
I2321
sS'concrete'
p3679
I1893
sS'presumptively'
p3680
I3832
sS'edge'
p3681
I2320
sS'flags'
p3682
I2573
sS'shores'
p3683
I4353
sS'mobs'
p3684
I3393
sS'meanwhile'
p3685
I3323
sS'appalled'
p3686
I1395
sS'know'
p3687
I3130
sS'milling'
p3688
I3368
sS'ambassador'
p3689
I1353
sS'echoing'
p3690
I2315
sS'dangerous.'
p3691
I2070
sS'\xe2\x80\x9cI'
p3692
I5217
sS'reliant'
p3693
I4055
sS'\xe2\x80\x9cenormous'
p3694
I5279
sS'-'
p3695
I13
sS'observed'
p3696
I3531
sS'named'
p3697
I3451
sS'militiamen'
p3698
I3365
sS'full-scale'
p3699
I2658
sS'Tyler'
p3700
I1090
sS'Suspicion'
p3701
I1036
sS'thorough'
p3702
I4754
sS'Reconstruction'
p3703
I884
sS'using'
p3704
I4971
sS'vigilant'
p3705
I5017
sS'alternative'
p3706
I1344
sS'headlights.'
p3707
I2800
sS'down'
p3708
I2270
sS'proven'
p3709
I3901
sS'emerging'
p3710
I2346
sS'cut'
p3711
I2056
sS'$'
p3712
I2
sS'conclusions'
p3713
I1891
sS'advisers'
p3714
I1257
sS'workers'
p3715
I5156
sS'danger'
p3716
I2067
sS'international'
p3717
I3036
sS'making.'
p3718
I3282
sS'heap.'
p3719
I2802
sS'source'
p3720
I4460
sS'subjects'
p3721
I4592
sS'deliberately'
p3722
I2123
sS'questioned'
p3723
I3936
sS'capital.'
p3724
I1697
sS'Brands'
p3725
I272
sS'Kuijer'
p3726
I620
sS'Marine'
p3727
I701
sS'remaining'
p3728
I4064
sS'surprised'
p3729
I4631
sS'Minister'
p3730
I727
sS'On'
p3731
I792
sS'Dubai-based'
p3732
I377
sS'Last'
p3733
I631
sS'doors'
p3734
I2264
sS'emergency'
p3735
I2345
sS'demands'
p3736
I2128
sS'When'
p3737
I1154
sS'bid'
p3738
I1572
sS'advocate'
p3739
I1259
sS'unsatisfactory.\xe2\x80\x9d'
p3740
I4940
sS'Air'
p3741
I164
sS'matters'
p3742
I3310
sS'game'
p3743
I2674
sS'private'
p3744
I3846
sS'\xe2\x80\x9cGadfly,\xe2\x80\x9d'
p3745
I5213
sS'provinces'
p3746
I3908
sS'Russian-American'
p3747
I922
sS'Yemen'
p3748
I1172
sS'wings'
p3749
I5138
sS'projects'
p3750
I3877
sS'formal'
p3751
I2625
sS'Pakistan'
p3752
I807
sS'Hrabove'
p3753
I515
sS'effectiveness'
p3754
I2325
sS'imposed'
p3755
I2929
sS'success'
p3756
I4596
sS'submission'
p3757
I4593
sS'confront'
p3758
I1913
sS'capitals'
p3759
I1698
sS'villa'
p3760
I5018
sS'signal.'
p3761
I4373
sS'Whatever'
p3762
I1153
sS'manifest'
p3763
I3292
sS'ignore'
p3764
I2909
sS'collect'
p3765
I1831
sS'continue'
p3766
I1943
sS'indication'
p3767
I2965
sS'tunnels'
p3768
I4867
sS'Fortuyn'
p3769
I442
sS'popular'
p3770
I3777
sS'Bezler'
p3771
I256
sS'fault'
p3772
I2506
sS'swooped'
p3773
I4649
sS'1415'
p3774
I37
sS'unhindered'
p3775
I4919
sS'penalized'
p3776
I3685
sS'anonymity'
p3777
I1376
sS'Management'
p3778
I689
sS'often'
p3779
I3557
sS'antiaircraft'
p3780
I1382
sS'world\xe2\x80\x99s'
p3781
I5165
sS'absolutely'
p3782
I1193
sS'some'
p3783
I4443
sS'back'
p3784
I1497
sS'couldn\xe2\x80\x99t'
p3785
I1982
sS'oval'
p3786
I3622
sS'economic'
p3787
I2316
sS'Silene'
p3788
I987
sS'sight'
p3789
I4371
sS'traversing'
p3790
I4845
sS'bruising'
p3791
I1648
sS'ourselves'
p3792
I3614
sS'leaders'
p3793
I3171
sS'Gubarev'
p3794
I485
sS'children,\xe2\x80\x9d'
p3795
I1765
sS'rarely'
p3796
I3959
sS'culprit'
p3797
I2049
sS'tampering.'
p3798
I4674
sS'Frank'
p3799
I448
sS'Moscow'
p3800
I736
sS'Reporting'
p3801
I891
sS'exceeding'
p3802
I2432
sS'per'
p3803
I3692
sS'Maree'
p3804
I699
sS'wrong'
p3805
I5177
sS'Fund'
p3806
I454
sS'Countenance'
p3807
I339
sS'\xe2\x80\x9ctime'
p3808
I5300
sS'Nothing'
p3809
I775
sS'Aviation'
p3810
I228
sS'fragments'
p3811
I2636
sS'commentator'
p3812
I1853
sS'lapse'
p3813
I3143
sS'be'
p3814
I1533
sS'specifically'
p3815
I4481
sS'swiftly'
p3816
I4647
sS'run'
p3817
I4203
sS'resolve'
p3818
I4118
sS'Lumpur\xe2\x80\x99s'
p3819
I666
sS'300'
p3820
I85
sS'Economics'
p3821
I390
sS'continuing'
p3822
I1945
sS'agreement'
p3823
I1280
sS'\xe2\x80\x9cOur'
p3824
I5239
sS'David'
p3825
I354
sS'identified.'
p3826
I2907
sS'500-stock'
p3827
I112
sS'step'
p3828
I4532
sS'launchers'
p3829
I3160
sS'nowhere'
p3830
I3525
sS'hostages'
p3831
I2870
sS'putting'
p3832
I3930
sS'villagers'
p3833
I5021
sS'Russia'
p3834
I918
sS'vivid'
p3835
I5033
sS'faith'
p3836
I2489
sS'suggests'
p3837
I4606
sS'Square'
p3838
I1009
sS'anything'
p3839
I1387
sS'Glenn'
p3840
I472
sS'Liow'
p3841
I651
sS'Rod'
p3842
I908
sS'feverish.'
p3843
I2527
sS'conciliatory'
p3844
I1888
sS'page'
p3845
I3637
sS'lifeless'
p3846
I3200
sS'range'
p3847
I3955
sS'involving'
p3848
I3069
sS'Michiel'
p3849
I721
sS'portable'
p3850
I3781
sS'incident.'
p3851
I2944
sS'blocked'
p3852
I1591
sS'\xe2\x80\x9cMy'
p3853
I5233
sS'\xe2\x80\x9ccontain\xe2\x80\x9d'
p3854
I5274
sS'Baczynska'
p3855
I233
sS'block'
p3856
I1588
sS'plan'
p3857
I3737
sS'seeing'
p3858
I4272
sS'maturity'
p3859
I3311
sS'12,000'
p3860
I35
sS'plenty'
p3861
I3757
sS'ethnic'
p3862
I2409
sS'terrorists'
p3863
I4714
sS'into'
p3864
I3047
sS'within'
p3865
I5144
sS'Malaysia.'
p3866
I684
sS'heedless'
p3867
I2813
sS'Shares'
p3868
I977
sS'Their'
p3869
I1054
sS'appropriate'
p3870
I1406
sS'girlfriend.'
p3871
I2700
sS'\xe2\x80\x9cpropensity'
p3872
I5290
sS'primarily'
p3873
I3838
sS'Pavel'
p3874
I813
sS'inventories'
p3875
I3050
sS'militarily'
p3876
I3358
sS'regulators'
p3877
I4041
sS'Korsunskaya'
p3878
I610
sS'seen'
p3879
I4278
sS'\xe2\x80\x9can'
p3880
I5268
sS'Norman'
p3881
I772
sS'few'
p3882
I2528
sS'Tiong'
p3883
I1071
sS'plane.'
p3884
I3741
sS'exposed'
p3885
I2462
sS'lone'
p3886
I3239
sS'Vitali'
p3887
I1131
sS'long'
p3888
I3240
sS'accountability'
p3889
I1207
sS'fund-raisers'
p3890
I2662
sS'flowing'
p3891
I2597
sS'forces.'
p3892
I2618
sS'conceivable'
p3893
I1884
sS':'
p3894
I135
sS'plane,\xe2\x80\x9d'
p3895
I3740
sS'mounting'
p3896
I3426
sS'\xe2\x80\x9ca'
p3897
I5264
sS'sex'
p3898
I4317
sS'flagrant'
p3899
I2572
sS'razor-close'
p3900
I3963
sS'invite'
p3901
I3062
sS'Shock'
p3902
I982
sS'Malaysian'
p3903
I685
sS'assisting'
p3904
I1452
sS'vowing'
p3905
I5042
sS'hoped'
p3906
I2861
sS'Sergius'
p3907
I971
sS'haven\xe2\x80\x99t'
p3908
I2792
sS'cooperation.'
p3909
I1966
sS'filed'
p3910
I2541
sS'line'
p3911
I3215
sS'pain'
p3912
I3640
sS'deployed'
p3913
I2150
sS'posted'
p3914
I3795
sS'Sergei'
p3915
I966
sS'open.'
p3916
I3572
sS'downed.'
p3917
I2275
sS'Schlegel'
p3918
I954
sS'Office'
p3919
I790
sS'Jeff'
p3920
I563
sS'Twitter'
p3921
I1087
sS'interventionism'
p3922
I3042
sS'Africa'
p3923
I158
sS'up'
p3924
I4948
sS'us'
p3925
I4963
sS'clips'
p3926
I1803
sS'Sergey'
p3927
I968
sS'those'
p3928
I4755
sS'Those'
p3929
I1063
sS'planes'
p3930
I3743
sS'reviewed'
p3931
I4156
sS'Brig'
p3932
I279
sS'RUSSIA'
p3933
I869
sS'well-known'
p3934
I5102
sS'members.'
p3935
I3339
sS'sanctions,\xe2\x80\x9d'
p3936
I4222
sS'poring'
p3937
I3779
sS'force.'
p3938
I2615
sS'ordered'
p3939
I3598
sS'unable'
p3940
I4888
sS'metal'
p3941
I3347
sS'turning-point'
p3942
I4873
sS'influence'
p3943
I2980
sS'together'
p3944
I4787
sS'Hampshire'
p3945
I494
sS'Aviv'
p3946
I229
sS'To'
p3947
I1072
sS'single'
p3948
I4389
sS'Edward'
p3949
I393
sS'International'
p3950
I539
sS'treaty'
p3951
I4849
sS'\xe2\x80\x98We\xe2\x80\x99re'
p3952
I5195
sS'denying'
p3953
I2143
sS'defines'
p3954
I2118
sS'truce'
p3955
I4859
sS'gunmen'
p3956
I2757
sS'reason.'
p3957
I3981
sS'TV'
p3958
I1044
sS'heat.'
p3959
I2809
sS'conflict-plagued'
p3960
I1910
sS'Igla'
p3961
I522
sS'A.'
p3962
I140
sS'Carbonnel'
p3963
I302
sS'politicians'
p3964
I3773
sS'Hazes'
p3965
I497
sS'Andrews'
p3966
I199
sS'NATO.'
p3967
I745
sS'principle'
p3968
I3841
sS'wished'
p3969
I5141
sS'bodies.'
p3970
I1608
sS'draw'
p3971
I2283
sS'accidental'
p3972
I1200
sS'provided'
p3973
I3904
sS'impress'
p3974
I2933
sS'hindrance'
p3975
I2846
sS'problems'
p3976
I3857
sS'before.'
p3977
I1548
sS'occurred'
p3978
I3538
sS'Lumpur.'
p3979
I665
sS'AP'
p3980
I147
sS'meaning'
p3981
I3318
sS'allowing'
p3982
I1335
sS'Cindy'
p3983
I319
sS'vigil'
p3984
I5016
sS'Making'
p3985
I680
sS'missile'
p3986
I3383
sS'meals'
p3987
I3316
sS'ago'
p3988
I1276
sS'night'
p3989
I3489
sS'independently'
p3990
I2961
sS'coincided'
p3991
I1823
sS'fighter'
p3992
I2536
sS'Malaysians'
p3993
I686
sS'isolation,\xe2\x80\x9d'
p3994
I3074
sS'vice'
p3995
I5001
sS'Allergy'
p3996
I179
sS'holes'
p3997
I2854
sS'orbit'
p3998
I3595
sS'departments'
p3999
I2144
sS'An'
p4000
I193
sS'2002'
p4001
I56
sS'As'
p4002
I212
sS'2001'
p4003
I55
sS'Scott'
p4004
I956
sS'Asian'
p4005
I215
sS'2004'
p4006
I57
sS'largely'
p4007
I3145
sS'recognize'
p4008
I4001
sS'dismal'
p4009
I2223
sS'menace'
p4010
I3342
sS'having'
p4011
I2793
sS'Warsaw'
p4012
I1140
sS'Monash'
p4013
I731
sS'sector'
p4014
I4266
sS'Based'
p4015
I242
sS'Vermeij'
p4016
I1123
sS'Cranes'
p4017
I341
sS'issued'
p4018
I3076
sS'Jim'
p4019
I566
sS'mines'
p4020
I3373
sS'illustrated'
p4021
I2911
sS'baby'
p4022
I1496
sS'airliners'
p4023
I1302
sS'Ramadan.'
p4024
I874
sS'tweeted'
p4025
I4874
sS'contributions'
p4026
I1950
sS'day,\xe2\x80\x9d'
p4027
I2078
sS'churned'
p4028
I1774
sS'seemed'
p4029
I4276
sS'south.'
p4030
I4463
sS'Notice'
p4031
I776
sS'Purgin'
p4032
I856
sS'stunned'
p4033
I4589
sS'earthbound'
p4034
I2307
sS'mollifying'
p4035
I3399
sS'concerned'
p4036
I1886
sS'Netanyahu'
p4037
I760
sS'citing'
p4038
I1779
sS'Gazprom'
p4039
I461
sS'institutions'
p4040
I3007
sS'capturing'
p4041
I1701
sS'late'
p4042
I3151
sS'crisis.'
p4043
I2032
sS'Now'
p4044
I781
sS'dramatically'
p4045
I2282
sS'indicating'
p4046
I2964
sS'brigade'
p4047
I1637
sS'center.'
p4048
I1734
sS'confirmation'
p4049
I1906
sS'priority.'
p4050
I3844
sS'Holland'
p4051
I509
sS'outside'
p4052
I3620
sS'escalated.'
p4053
I2400
sS'Region'
p4054
I887
sS'airliner.'
p4055
I1301
sS'Base.'
p4056
I241
sS'wave'
p4057
I5078
sS'65-mile-per-hour'
p4058
I120
sS'accuse'
p4059
I1212
sS'telling'
p4060
I4699
sS'more.'
p4061
I3414
sS'continued'
p4062
I1944
sS'cover-up'
p4063
I2003
sS'Ki-moon'
p4064
I597
sS'Ambassador'
p4065
I183
sS'No.'
p4066
I770
sS'University.'
p4067
I1109
sS'Investors'
p4068
I542
sS'targeting'
p4069
I4683
sS'positions'
p4070
I3787
sS'sanctions'
p4071
I4221
sS'dogleg-like'
p4072
I2254
sS'agency.'
p4073
I1273
sS'try'
p4074
I4862
sS'suit.'
p4075
I4608
sS'Defense'
p4076
I357
sS'fortified'
p4077
I2627
sS'flight-tracker'
p4078
I2584
sS'ceasefire'
p4079
I1731
sS'challenge'
p4080
I1741
sS'warheads'
p4081
I5061
sS'Turkey'
p4082
I1084
sS'they\xe2\x80\x99re'
p4083
I4743
sS'strongly'
p4084
I4582
sS'dilute'
p4085
I2189
sS'tragedy.\xe2\x80\x9d'
p4086
I4825
sS'sovereign'
p4087
I4468
sS'pants.'
p4088
I3643
sS'comply.\xe2\x80\x9d'
p4089
I1876
sS'punishing'
p4090
I3922
sS'other.'
p4091
I3610
sS'repurchases'
p4092
I4098
sS'State'
p4093
I1013
sS'today'
p4094
I4785
sS'brings.\xe2\x80\x9d'
p4095
I1640
sS'traveling'
p4096
I4843
sS'picked'
p4097
I3717
sS'growing'
p4098
I2746
sS'Airport.'
p4099
I170
sS'traced'
p4100
I4814
sS'instead.'
p4101
I3003
sS'folk'
p4102
I2605
sS'spiriting'
p4103
I4491
sS'index'
p4104
I2962
sS'that.'
p4105
I4723
sS'power'
p4106
I3802
sS'wide'
p4107
I5126
sS'giving'
p4108
I2703
sS'expressed'
p4109
I2465
sS'access'
p4110
I1197
sS'paying'
p4111
I3679
sS'services.'
p4112
I4306
sS'vehicle'
p4113
I4986
sS'21,000'
p4114
I62
sS'capital'
p4115
I1696
sS'obvious'
p4116
I3535
sS';'
p4117
I136
sS'America'
p4118
I184
sS'\xe2\x80\x9cabout'
p4119
I5265
sS'exercise'
p4120
I2437
sS'\xe2\x80\x9cThey'
p4121
I5251
sS'body'
p4122
I1609
sS'distressing'
p4123
I2244
sS'led'
p4124
I3180
sS'chose'
p4125
I1770
sS'degree'
p4126
I2120
sS'leg'
p4127
I3183
sS'Brasilia'
p4128
I273
sS'Professor'
p4129
I851
sS'condolences.'
p4130
I1902
sS'commercial'
p4131
I1856
sS'jointly'
p4132
I3100
sS'delivering'
p4133
I2125
sS'save'
p4134
I4226
sS'desired'
p4135
I2158
sS'objects'
p4136
I3530
sS'Crimean'
p4137
I344
sS'making'
p4138
I3281
sS'specialists,\xe2\x80\x9d'
p4139
I4477
sS'suggest'
p4140
I4603
sS'great'
p4141
I2728
sS'engage'
p4142
I2369
sS'parameters'
p4143
I3646
sS'Chinese'
p4144
I317
sS'broken'
p4145
I1644
sS'33'
p4146
I89
sS'32'
p4147
I86
sS'until'
p4148
I4944
sS'30'
p4149
I84
sS'37'
p4150
I96
sS'36'
p4151
I95
sS'35'
p4152
I92
sS'64.'
p4153
I118
sS'gays'
p4154
I2685
sS'upper'
p4155
I4955
sS'645'
p4156
I119
sS'Novosti'
p4157
I780
sS'warnings'
p4158
I5065
sS'opinion'
p4159
I3585
sS'added.'
p4160
I1240
sS'proof'
p4161
I3883
sS'makes'
p4162
I3280
sS'honor'
p4163
I2860
sS'involves'
p4164
I3068
sS'felled'
p4165
I2519
sS'scale'
p4166
I4233
sS'foresee'
p4167
I2622
sS'ally.'
p4168
I1338
sS'airspace'
p4169
I1314
sS'Kremlin\xe2\x80\x99s'
p4170
I617
sS'weapon.'
p4171
I5087
sS'Robert'
p4172
I905
sS'briefings.'
p4173
I1635
sS'decision-makers.\xe2\x80\x9d'
p4174
I2099
sS'improbable'
p4175
I2934
sS'addressed'
p4176
I1245
sS'Safety'
p4177
I942
sS'Nico'
p4178
I766
sS'Lucian'
p4179
I660
sS'procedures,\xe2\x80\x9d'
p4180
I3860
sS'home'
p4181
I2856
sS'apply'
p4182
I1403
sS'festivals'
p4183
I2526
sS'convinced.'
p4184
I1961
sS'route'
p4185
I4184
sS'standing'
p4186
I4512
sS'pervasive,\xe2\x80\x9d'
p4187
I3710
sS'mourning.'
p4188
I3430
sS'from'
p4189
I2649
sS'worldwide.'
p4190
I5164
sS'remains'
p4191
I4065
sS'dietitian'
p4192
I2183
sS'\xe2\x80\x9crisks'
p4193
I5292
sS'ministers'
p4194
I3378
sS'next'
p4195
I3488
sS'blockades'
p4196
I1590
sS'doubt'
p4197
I2268
sS'NATO'
p4198
I744
sS'lead,\xe2\x80\x9d'
p4199
I3169
sS'singled'
p4200
I4390
sS'communications'
p4201
I1859
sS'themselves'
p4202
I4731
sS'\xe2\x80\x9cHow'
p4203
I5216
sS'moved'
p4204
I3433
sS'summarizing'
p4205
I4610
sS'high-flying'
p4206
I2834
sS'gained'
p4207
I2671
sS'Lane'
p4208
I628
sS'infantry'
p4209
I2977
sS'event.'
p4210
I2416
sS'festival.'
p4211
I2525
sS'statement.'
p4212
I4523
sS'becomes'
p4213
I1543
sS'musician'
p4214
I3443
sS'benchmark'
p4215
I1563
sS'Wednesday'
p4216
I1145
sS'wildly'
p4217
I5131
sS'cooperate'
p4218
I1964
sS'supplying'
p4219
I4620
sS'dealings'
p4220
I2089
sS'carrying'
p4221
I1712
sS'president.'
p4222
I3823
sS'Relief'
p4223
I889
sS'sharply'
p4224
I4327
sS'veered'
p4225
I4985
sS'Growing'
p4226
I484
sS'Ukraine\xe2\x80\x99s'
p4227
I1100
sS'pieces'
p4228
I3721
sS'Berlusconi'
p4229
I253
sS'women'
p4230
I5148
sS'customer'
p4231
I2054
sS'majority'
p4232
I3277
sS'account'
p4233
I1206
sS'talks'
p4234
I4669
sS'respect.'
p4235
I4122
sS'announcing'
p4236
I1374
sS'pointedly'
p4237
I3765
sS'this'
p4238
I4751
sS'NATO\xe2\x80\x99s'
p4239
I746
sS'getting'
p4240
I2695
sS'half.'
p4241
I2764
sS'halt'
p4242
I2766
sS'errantly'
p4243
I2396
sS'minister.'
p4244
I3377
sS'anywhere'
p4245
I1391
sS'crossed'
p4246
I2039
sS'remain.'
p4247
I4062
sS'of'
p4248
I3540
sS'industrial'
p4249
I2973
sS'meet'
p4250
I3333
sS'closing'
p4251
I1810
sS'junta.\xe2\x80\x9d'
p4252
I3107
sS'seven-year'
p4253
I4312
sS'dropped'
p4254
I2291
sS'control'
p4255
I1951
sS'giants'
p4256
I2697
sS'Israeli'
p4257
I550
sS'violence'
p4258
I5026
sS'safe.\xe2\x80\x9d'
p4259
I4210
sS'links'
p4260
I3218
sS'process'
p4261
I3861
sS'\xe2\x80\x9cAbsolutely'
p4262
I5197
sS'comprehend.'
p4263
I1878
sS'Dutch'
p4264
I379
sS'tax'
p4265
I4687
sS'Schiphol'
p4266
I953
sS'genuine.'
p4267
I2688
sS'high'
p4268
I2832
sS'professor'
p4269
I3865
sS'Mr.'
p4270
I739
sS'his'
p4271
I2847
sS'impeded'
p4272
I2922
sS'sought'
p4273
I4455
sS'transpires'
p4274
I4836
sS'Australian'
p4275
I225
sS'Several'
p4276
I974
sS'people.\xe2\x80\x9d'
p4277
I3690
sS'stemmed'
p4278
I4531
sS'successful'
p4279
I4598
sS'television'
p4280
I4697
sS'tamper'
p4281
I4672
sS'wandered'
p4282
I5051
sS'early-evening'
p4283
I2305
sS'Europe,\xe2\x80\x9d'
p4284
I407
sS'materials'
p4285
I3308
sS'sentiments'
p4286
I4293
sS'instead'
p4287
I3002
sS'thin-skinned'
p4288
I4746
sS'stand'
p4289
I4508
sS'tension'
p4290
I4704
sS'buildings'
p4291
I1651
sS'ABC'
p4292
I141
sS'370.'
p4293
I98
sS'Israel.'
p4294
I548
sS'annexed'
p4295
I1370
sS'underway'
p4296
I4912
sS'peace'
p4297
I3680
sS'British'
p4298
I281
sS'perceive'
p4299
I3693
sS'MH370'
p4300
I676
sS'lines.'
p4301
I3217
sS'mediated'
p4302
I3328
sS'Joep'
p4303
I568
sS'Heidenrijk'
p4304
I500
sS'ties'
p4305
I4777
sS'Australia.'
p4306
I224
sS'smoldered'
p4307
I4421
sS'solidarity'
p4308
I4439
sS'\xe2\x80\x9cEvery'
p4309
I5209
sS'physical'
p4310
I3716
sS'Disaster'
p4311
I364
sS'objected'
p4312
I3527
sS'light'
p4313
I3203
sS'\xe2\x80\x9cPeople'
p4314
I5241
sS'feels'
p4315
I2514
sS'pro-Kremlin'
p4316
I3848
sS'One'
p4317
I794
sS'Middle'
p4318
I722
sS'chief'
p4319
I1762
sS'10-day'
p4320
I30
sS'allow'
p4321
I1333
sS'systems,\xe2\x80\x9d'
p4322
I4655
sS'lined'
p4323
I3216
sS'discussion'
p4324
I2218
sS'pro-Russia'
p4325
I3850
sS'cease-fire'
p4326
I1728
sS'organizers'
p4327
I3606
sS'least'
p4328
I3177
sS'imposed.\xe2\x80\x9d'
p4329
I2930
sS'sanctioned'
p4330
I4219
sS'reeling'
p4331
I4017
sS'geopolitics'
p4332
I2691
sS'areas'
p4333
I1412
sS'despite'
p4334
I2160
sS'rebellious'
p4335
I3989
sS'\xe2\x80\x9cAnd'
p4336
I5200
sS'produced'
p4337
I3863
sS'looping'
p4338
I3253
sS'celebrations'
p4339
I1732
sS'existence.'
p4340
I2439
sS'looks'
p4341
I3252
sS'empty.'
p4342
I2354
sS'permission'
p4343
I3701
sS'RIA-Novosti'
p4344
I866
sS'Kirka'
p4345
I604
sS'angry,\xe2\x80\x9d'
p4346
I1368
sS'earlier'
p4347
I2302
sS'industries'
p4348
I2974
sS'anonymously'
p4349
I1377
sS'Emergency'
p4350
I402
sS'network.'
p4351
I3480
sS'send'
p4352
I4285
sS'landed'
p4353
I3139
sS'FlightRadar24'
p4354
I435
sS'firing.'
p4355
I2563
sS'him'
p4356
I2841
sS'meantime'
p4357
I3322
sS'previously'
p4358
I3836
sS'violating'
p4359
I5023
sS'permanent'
p4360
I3700
sS'airport.'
p4361
I1311
sS'criminal'
p4362
I2028
sS'world.'
p4363
I5161
sS'landing.'
p4364
I3141
sS'2013'
p4365
I59
sS'2012'
p4366
I58
sS'overflights'
p4367
I3626
sS'designs'
p4368
I2157
sS'winding'
p4369
I5134
sS'Heintz'
p4370
I502
sS'greater'
p4371
I2729
sS'unclear'
p4372
I4900
sS'\xe2\x80\x9cHe'
p4373
I5215
sS'questions'
p4374
I3937
sS'material'
p4375
I3307
sS'flew'
p4376
I2581
sS'unarmed'
p4377
I4893
sS'rebel'
p4378
I3985
sS'cutting'
p4379
I2058
sS'stout'
p4380
I4556
sS'hands'
p4381
I2773
sS'front'
p4382
I2650
sS'meeting.'
p4383
I3335
sS'day'
p4384
I2077
sS'emotion'
p4385
I2348
sS'kilometres'
p4386
I3124
sS'San'
p4387
I946
sS'profound'
p4388
I3869
sS'warned'
p4389
I5063
sS'disappointment\xe2\x80\x9d'
p4390
I2204
sS'identified'
p4391
I2906
sS'blazing'
p4392
I1585
sS'begs'
p4393
I1552
sS'Kremlin,\xe2\x80\x9d'
p4394
I615
sS'magnitude'
p4395
I3273
sS'rockets'
p4396
I4174
sS'mode'
p4397
I3394
sS'truth'
p4398
I4861
sS'70,000'
p4399
I123
sS'crossing'
p4400
I2040
sS'accompanied'
p4401
I1203
sS'exists.\xe2\x80\x9d'
p4402
I2440
sS'nationals'
p4403
I3458
sS'messing'
p4404
I3344
sS'negotiations.'
p4405
I3474
sS'eastern'
p4406
I2311
sS'violations'
p4407
I5025
sS'From'
p4408
I453
sS'conflict.'
p4409
I1911
sS'tents'
p4410
I4705
sS'airlines.'
p4411
I1306
sS'unusual.'
p4412
I4946
sS'Canadian.'
p4413
I300
sS'parties'
p4414
I3655
sS'Mills'
p4415
I726
sS'consultancy.'
p4416
I1936
sS'Interfax'
p4417
I538
sS'tiny'
p4418
I4782
sS'society'
p4419
I4431
sS'launched'
p4420
I3158
sS'investigative'
p4421
I3056
sS'do.\xe2\x80\x9d'
p4422
I2247
sS'variety'
p4423
I4982
sS'react.'
p4424
I3968
sS'ambassadors'
p4425
I1354
sS'80'
p4426
I133
sS'proclaim'
p4427
I3862
sS'special'
p4428
I4476
sS'out'
p4429
I3615
sS'respects'
p4430
I4123
sS'Brussels-based'
p4431
I285
sS'fundamentally'
p4432
I2663
sS'littered'
p4433
I3226
sS'CEO'
p4434
I295
sS'defend'
p4435
I2115
sS'closer'
p4436
I1809
sS'chaos'
p4437
I1751
sS'foreign'
p4438
I2620
sS'your'
p4439
I5189
sS'settlement'
p4440
I4311
sS'may'
p4441
I3313
sS'time.'
p4442
I4780
sS'activist'
p4443
I1232
sS'China'
p4444
I315
sS'Eurocontrol'
p4445
I405
sS'Blinken'
p4446
I262
sS'intervention'
p4447
I3041
sS'Holland.\xe2\x80\x9d'
p4448
I510
sS'waters'
p4449
I5077
sS'announced'
p4450
I1372
sS'disclose'
p4451
I2211
sS'trip.'
p4452
I4854
sS'shut'
p4453
I4367
sS'home.\xe2\x80\x9d'
p4454
I2858
sS'This'
p4455
I1061
sS'southern'
p4456
I4466
sS'recommendations'
p4457
I4003
sS'WASHINGTON'
p4458
I1136
sS'promptly'
p4459
I3882
sS'position'
p4460
I3785
sS'insurgents'
p4461
I3016
sS'Petsa'
p4462
I823
sS'barricades'
p4463
I1519
sS'disintegrating'
p4464
I2222
sS'usual'
p4465
I4972
sS'conflicts'
p4466
I1912
sS'Senator'
p4467
I961
sS'reporters'
p4468
I4090
sS'20,000'
p4469
I53
sS'1983'
p4470
I48
sS'resumed'
p4471
I4149
sS'support.'
p4472
I4622
sS'farmland'
p4473
I2502
sS'allies'
p4474
I1331
sS'Bali'
p4475
I235
sS'fueled'
p4476
I2656
sS'determining'
p4477
I2174
sS'could'
p4478
I1981
sS'area'
p4479
I1410
sS'modern'
p4480
I3398
sS'keep'
p4481
I3115
sS'conversation'
p4482
I1957
sS'allied'
p4483
I1330
sS'downed'
p4484
I2274
sS'grieving'
p4485
I2736
sS'facilitate'
p4486
I2480
sS'scare'
p4487
I4237
sS'south'
p4488
I4462
sS'respond'
p4489
I4125
sS'week\xe2\x80\x99s'
p4490
I5099
sS'organized'
p4491
I3605
sS'blown'
p4492
I1598
sS'airliner\xe2\x80\x99s'
p4493
I1304
sS'2,000'
p4494
I50
sS'Administration'
p4495
I153
sS'scene'
p4496
I4241
sS'economy.'
p4497
I2319
sS'echo'
p4498
I2313
sS'reroute'
p4499
I4104
sS'set'
p4500
I4308
sS'government\xe2\x80\x99s'
p4501
I2722
sS'proposing'
p4502
I3890
sS'type'
p4503
I4883
sS'U.N.AIDS'
p4504
I1093
sS'reached'
p4505
I3967
sS'noticed'
p4506
I3519
sS'co-founder'
p4507
I1818
sS'two.'
p4508
I4882
sS'sudden'
p4509
I4600
sS'management'
p4510
I3286
sS'North'
p4511
I773
sS'cynical'
p4512
I2059
sS'made.'
p4513
I3272
sS'Eastern'
p4514
I389
sS'bears'
p4515
I1537
sS'revealed'
p4516
I4155
sS'demonstration'
p4517
I2131
sS'seat'
p4518
I4260
sS'system'
p4519
I4652
sS'adopted'
p4520
I1252
sS'Yanukovych'
p4521
I1171
sS'republic\xe2\x80\x99s'
p4522
I4097
sS'Earnest'
p4523
I386
sS'attack'
p4524
I1461
sS'ensemble\xe2\x80\x9d'
p4525
I2379
sS'Berlin.'
p4526
I252
sS'state-controlled'
p4527
I4519
sS'rippled'
p4528
I4165
sS'Iraq'
p4529
I544
sS'culpability.'
p4530
I2047
sS'final'
p4531
I2545
sS'Association'
p4532
I219
sS'low'
p4533
I3264
sS'interests'
p4534
I3032
sS'shell'
p4535
I4332
sS'stomach'
p4536
I4545
sS'gear'
p4537
I2686
sS'prostitute'
p4538
I3895
sS'journalists.'
p4539
I3103
sS'punish'
p4540
I3921
sS'Qantas'
p4541
I861
sS'exactly'
p4542
I2429
sS'waging'
p4543
I5045
sS'wound'
p4544
I5171
sS'Malaysians.'
p4545
I687
sS'targeted'
p4546
I4682
sS'Union.\xe2\x80\x9d'
p4547
I1105
sS'manipulation'
p4548
I3294
sS'pilfered'
p4549
I3727
sS'reaffirm'
p4550
I3976
sS'France'
p4551
I445
sS'Bruin'
p4552
I283
sS'updating'
p4553
I4953
sS'Press.\xe2\x80\x9d'
p4554
I845
sS'loved'
p4555
I3263
sS'colleagues'
p4556
I1830
sS'sectors'
p4557
I4267
sS'minister'
p4558
I3376
sS'pursuing'
p4559
I3925
sS'tragedy'
p4560
I4823
sS'bed'
p4561
I1545
sS'limiting'
p4562
I3212
sS'Sutyagin'
p4563
I1037
sS'patients'
p4564
I3676
sS'individual'
p4565
I2970
sS'orchestrated'
p4566
I3596
sS'problems.\xe2\x80\x9d'
p4567
I3859
sS'Casper'
p4568
I305
sS'Oval'
p4569
I804
sS'curiosity.'
p4570
I2050
sS'Peter'
p4571
I820
sS'spirit,\xe2\x80\x9d'
p4572
I4490
sS'creditors'
p4573
I2018
sS'are'
p4574
I1409
sS'town.'
p4575
I4812
sS'accusing'
p4576
I1215
sS'neutralize'
p4577
I3481
sS'Anton'
p4578
I204
sS'tidy'
p4579
I4776
sS'1.9'
p4580
I26
sS'region.'
p4581
I4034
sS'Other'
p4582
I801
sS'interfered'
p4583
I3033
sS'unlikely'
p4584
I4932
sS'have'
p4585
I2791
sS'need'
p4586
I3468
sS'presidential'
p4587
I3824
sS'turn'
p4588
I4871
sS'apparently'
p4589
I1397
sS'Kremlin'
p4590
I614
sS'viewed'
p4591
I5013
sS'fuel.'
p4592
I2655
sS'Development'
p4593
I362
sS'Twitter.'
p4594
I1088
sS'Europe\xe2\x80\x99s'
p4595
I412
sS'afraid'
p4596
I1263
sS'\xe2\x80\x9cexpressed'
p4597
I5280
sS'wary'
p4598
I5069
sS'Airways'
p4599
I172
sS'cranes'
p4600
I2008
sS'After'
p4601
I160
sS'able'
p4602
I1186
sS'cross-border'
p4603
I2038
sS'instance'
p4604
I2999
sS'relatives'
p4605
I4051
sS'concerns'
p4606
I1887
sS'pivotal'
p4607
I3735
sS'declined'
p4608
I2105
sS'prefer'
p4609
I3813
sS'unsettled'
p4610
I4942
sS'provoked'
p4611
I3911
sS'so'
p4612
I4428
sS'you\xe2\x80\x99d'
p4613
I5190
sS'dismay.'
p4614
I2224
sS'Siberia'
p4615
I983
sS'worldwide'
p4616
I5163
sS'unavoidable.'
p4617
I4895
sS'regard'
p4618
I4030
sS'relatively'
p4619
I4050
sS'meek'
p4620
I3332
sS'combat'
p4621
I1838
sS'collaboration'
p4622
I1826
sS'McGuirk'
p4623
I713
sS'operation.\xe2\x80\x9d'
p4624
I3582
sS'harmful'
p4625
I2785
sS'petals'
p4626
I3711
sS'up,\xe2\x80\x9d'
p4627
I4949
sS'fasting'
p4628
I2504
sS'eight'
p4629
I2330
sS'demise'
p4630
I2129
sS'sales'
p4631
I4217
sS'preliminary'
p4632
I3816
sS'future'
p4633
I2669
sS'\xe2\x80\x9cEverybody'
p4634
I5210
sS'Asked'
p4635
I217
sS'\xe2\x80\x9cNone'
p4636
I5235
sS'unacceptable.'
p4637
I4890
sS'conditions\xe2\x80\x9d'
p4638
I1900
sS'deny'
p4639
I2142
sS'captured.'
p4640
I1700
sS'consequences'
p4641
I1924
sS'wish'
p4642
I5140
sS'gather'
p4643
I2681
sS'Some'
p4644
I1002
sS'disease'
p4645
I2221
sS'face'
p4646
I2477
sS'Separatist'
p4647
I963
sS'Mohamad'
p4648
I729
sS'billion.'
p4649
I1576
sS'talk'
p4650
I4667
sS'peacekeeper'
p4651
I3683
sS'constrain'
p4652
I1935
sS'typical'
p4653
I4884
sS'its'
p4654
I3082
sS'Saturday'
p4655
I949
sS'fact'
p4656
I2482
sS'goals'
p4657
I2710
sS'Everybody'
p4658
I415
sS'troops.'
p4659
I4857
sS'area.'
p4660
I1411
sS'tape'
p4661
I4678
sS'everybody\xe2\x80\x99s'
p4662
I2423
sS'Aytech'
p4663
I230
sS'southeast.'
p4664
I4465
sS'Kerry\xe2\x80\x99s'
p4665
I594
sS'sent'
p4666
I4290
sS'management,\xe2\x80\x9d'
p4667
I3287
sS'anyway'
p4668
I1389
sS'superficial'
p4669
I4616
sS'bring'
p4670
I1638
sS'separatists.'
p4671
I4298
sS'planning'
p4672
I3749
sS'parked'
p4673
I3648
sS'soldiers'
p4674
I4435
sS'determined'
p4675
I2173
sS'Lederer'
p4676
I641
sS'Public'
p4677
I854
sS'decade'
p4678
I2095
sS'Recovery'
p4679
I885
sS'Russian-backed'
p4680
I924
sS'partners'
p4681
I3658
sS'inspiring'
p4682
I2997
sS'trying'
p4683
I4863
sS'based'
p4684
I1521
sS'pressures'
p4685
I3830
sS'tough'
p4686
I4802
sS'('
p4687
I10
sS'cache'
p4688
I1673
sS'many.'
p4689
I3296
sS'controls'
p4690
I1955
sS'eat'
p4691
I2312
sS'Su-25s.'
p4692
I1028
sS'John-Thor'
p4693
I570
sS'Jill'
p4694
I565
sS'sunflowers'
p4695
I4615
sS'York'
p4696
I1174
sS'indeed'
p4697
I2957
sS'fuel'
p4698
I2654
sS'local'
p4699
I3235
sS'hand.'
p4700
I2769
sS'achieve'
p4701
I1216
sS'meant'
p4702
I3321
sS'move'
p4703
I3432
sS'handle'
p4704
I2771
sS'years.'
p4705
I5185
sS'means'
p4706
I3320
sS'Whether'
p4707
I1156
sS'familiar'
p4708
I2493
sS'Tanzania'
p4709
I1048
sS'overall'
p4710
I3625
sS'prohibition'
p4711
I3874
sS'Pechtold'
p4712
I814
sS'\xe2\x80\x9cWe\xe2\x80\x99re'
p4713
I5257
sS'joint'
p4714
I3099
sS'pass.'
p4715
I3665
sS'Hague'
p4716
I491
sS'April.'
p4717
I210
sS'invoked'
p4718
I3064
sS'words'
p4719
I5152
sS'hostilities.'
p4720
I2873
sS'tactics'
p4721
I4660
sS'THE'
p4722
I1042
sS'route,\xe2\x80\x9d'
p4723
I4185
sS'F.A.A.'
p4724
I419
sS'Italian'
p4725
I554
sS'president\xe2\x80\x99s'
p4726
I3825
sS'following'
p4727
I2609
sS'Vasilikos'
p4728
I1119
sS'Because'
p4729
I245
sS'recess.'
p4730
I4000
sS'trucks'
p4731
I4860
sS'course'
p4732
I1998
sS'height,\xe2\x80\x9d'
p4733
I2815
sS'who'
p4734
I5122
sS'anything.'
p4735
I1388
sS'calling'
p4736
I1679
sS'whether'
p4737
I5117
sS'yellow'
p4738
I5186
sS'Experts'
p4739
I417
sS'Borodai'
p4740
I269
sS'allegation'
p4741
I1323
sS'support.\xe2\x80\x9d'
p4742
I4623
sS'gunman'
p4743
I2756
sS'underscored'
p4744
I4908
sS'view'
p4745
I5009
sS'intervening'
p4746
I3040
sS'Afghanistan'
p4747
I156
sS'official'
p4748
I3552
sS'accuses'
p4749
I1214
sS'\xe2\x80\x9cEveryone'
p4750
I5211
sS'milder'
p4751
I3353
sS'acquired'
p4752
I1219
sS'national'
p4753
I3456
sS'Israel\xe2\x80\x99s'
p4754
I552
sS'Send'
p4755
I962
sS'freeze'
p4756
I2642
sS'world'
p4757
I5159
sS'serious.\xe2\x80\x9d'
p4758
I4302
sS'intensity'
p4759
I3027
sS'Petro'
p4760
I822
sS'Moscow\xe2\x80\x99s'
p4761
I738
sS'enhanced'
p4762
I2377
sS'refrained'
p4763
I4024
sS'operated'
p4764
I3578
sS'terms'
p4765
I4706
sS'cold'
p4766
I1825
sS'end.'
p4767
I2360
sS'Linden'
p4768
I648
sS'corpses'
p4769
I1973
sS'ground.'
p4770
I2741
sS'televised'
p4771
I4696
sS'nominally'
p4772
I3498
sS'pattern'
p4773
I3677
sS'shock.\xe2\x80\x9d'
p4774
I4339
sS'missing'
p4775
I3387
sS'Lawless'
p4776
I638
sS'below'
p4777
I1562
sS'tend'
p4778
I4702
sS'areas,\xe2\x80\x9d'
p4779
I1413
sS'favor'
p4780
I2508
sS'state'
p4781
I4518
sS'mind.'
p4782
I3371
sS'identification'
p4783
I2905
sS'routing'
p4784
I4193
sS'closed'
p4785
I1807
sS'confusion'
p4786
I1918
sS'understood'
p4787
I4911
sS'July'
p4788
I581
sS'Republican'
p4789
I893
sS'email'
p4790
I2340
sS'midnight'
p4791
I3351
sS'asked.'
p4792
I1439
sS'Satish'
p4793
I948
sS'ground-to-ground'
p4794
I2740
sS'restrict'
p4795
I4139
sS'ability'
p4796
I1184
sS'Jane\xe2\x80\x99s'
p4797
I562
sS'helicopters'
p4798
I2820
sS'importance'
p4799
I2926
sS'rescuers'
p4800
I4107
sS'unit.'
p4801
I4923
sS'deliver'
p4802
I2124
sS'agencies'
p4803
I1271
sS'official.'
p4804
I3553
sS'weren\xe2\x80\x99t'
p4805
I5107
sS'efficiency'
p4806
I2327
sS'researchers'
p4807
I4110
sS'key'
p4808
I3118
sS'sitting'
p4809
I4396
sS'depends.'
p4810
I2149
sS'P.'
p4811
I805
sS'sleazy'
p4812
I4413
sS'garden'
p4813
I2676
sS'permitted.'
p4814
I3702
sS'restrictions'
p4815
I4143
sS'empathy'
p4816
I2351
sS'instant'
p4817
I3000
sS'limits'
p4818
I3213
sS'southeast'
p4819
I4464
sS'invited'
p4820
I3063
sS'recorders'
p4821
I4006
sS'incident'
p4822
I2943
sS'attributed'
p4823
I1471
sS'\xe2\x80\x9cVladimir'
p4824
I5255
sS'a.m.'
p4825
I1182
sS'Unlikely'
p4826
I1110
sS'sustain'
p4827
I4643
sS'passing'
p4828
I3670
sS'close.'
p4829
I1806
sS'dubious.'
p4830
I2296
sS'otherwise'
p4831
I3612
sS'comment'
p4832
I1852
sS'Timothy'
p4833
I1070
sS'torn'
p4834
I4798
sS'diplomats'
p4835
I2194
sS'premise'
p4836
I3817
sS'friend.'
p4837
I2645
sS'fostering'
p4838
I2630
sS'targets'
p4839
I4684
sS'smoldering'
p4840
I4422
sS'agreed'
p4841
I1278
sS'HAGUE'
p4842
I489
sS'months.'
p4843
I3410
sS'administration\xe2\x80\x99s'
p4844
I1251
sS'table'
p4845
I4657
sS'traveling,\xe2\x80\x9d'
p4846
I4844
sS'Utrecht.'
p4847
I1112
sS'focus.'
p4848
I2602
sS'parties.'
p4849
I3656
sS'8.2'
p4850
I132
sS'Sisi'
p4851
I991
sS'motorbike'
p4852
I3424
sS'deep'
p4853
I2109
sS'addition'
p4854
I1242
sS'games.\xe2\x80\x9d'
p4855
I2675
sS'pain.'
p4856
I3641
sS'video'
p4857
I5006
sS'regular'
p4858
I4038
sS'imagery'
p4859
I2912
sS'throne'
p4860
I4769
sS'poured'
p4861
I3801
sS'slowly'
p4862
I4416
sS'Margolis'
p4863
I700
sS'Rediker'
p4864
I886
sS'rump'
p4865
I4202
sS'Sexy'
p4866
I975
sS'proposal'
p4867
I3888
sS'Sikorski'
p4868
I986
sS'home.'
p4869
I2857
sS'dead.'
p4870
I2087
sS'pity'
p4871
I3734
sS'controlled'
p4872
I1952
sS'maneuvers'
p4873
I3290
sS'harshest'
p4874
I2787
sS'deer'
p4875
I2114
sS'smoothly.'
p4876
I4424
sS'Oehlers'
p4877
I789
sS'Nations'
p4878
I755
sS'Poroshenko\xe2\x80\x99s'
p4879
I837
sS'controller'
p4880
I1953
sS'June.'
p4881
I583
sS'tense'
p4882
I4703
sS'Kuala'
p4883
I618
sS'coordinated'
p4884
I1968
sS'Richardson'
p4885
I900
sS'assessments'
p4886
I1446
sS'fellow'
p4887
I2521
sS'present'
p4888
I3819
sS'quotation'
p4889
I3943
sS'And'
p4890
I195
sS'arms.'
p4891
I1424
sS'view.'
p4892
I5011
sS'main'
p4893
I3274
sS'Force'
p4894
I440
sS'cease-fires'
p4895
I1730
sS'Russian-supplied'
p4896
I926
sS'agreement.'
p4897
I1281
sS'\xe2\x80\x9cand'
p4898
I5269
sS'without'
p4899
I5145
sS'appearance'
p4900
I1400
sS'boardwalk'
p4901
I1604
sS'General'
p4902
I464
sS'Federation.\xe2\x80\x9d'
p4903
I426
sS'coy'
p4904
I2005
sS'too'
p4905
I4792
sS'country'
p4906
I1991
sS'Battle'
p4907
I244
sS'Taiwan'
p4908
I1045
sS'33,000,\xe2\x80\x9d'
p4909
I91
sS'Any'
p4910
I207
sS'barely'
p4911
I1516
sS'almost'
p4912
I1339
sS'thus'
p4913
I4775
sS'paper.\xe2\x80\x9d'
p4914
I3644
sS'hardware'
p4915
I2783
sS'LONDON'
p4916
I625
sS'countries.'
p4917
I1990
sS'politics'
p4918
I3774
sS'claimed'
p4919
I1789
sS'crash'
p4920
I2009
sS'You'
p4921
I1175
sS'Strategic'
p4922
I1021
sS'opprobrium'
p4923
I3591
sS'increased,\xe2\x80\x9d'
p4924
I2952
sS'spillover'
p4925
I4487
sS'finance'
p4926
I2547
sS'portray'
p4927
I3783
sS'denial'
p4928
I2133
sS'let'
p4929
I3191
sS'apart.'
p4930
I1393
sS'Civilian'
p4931
I321
sS')'
p4932
I11
sS'began'
p4933
I1549
sS'morning'
p4934
I3416
sS'administration'
p4935
I1250
sS'cross'
p4936
I2037
sS'unite'
p4937
I4924
sS'world.\xe2\x80\x9d'
p4938
I5162
sS'highlighted'
p4939
I2839
sS'piles'
p4940
I3726
sS'when'
p4941
I5115
sS'Halliburton'
p4942
I492
sS'Kovan'
p4943
I612
sS'northwest'
p4944
I3507
sS'cease-fire.\xe2\x80\x9d'
p4945
I1729
sS'conversations'
p4946
I1958
sS'Zulkifl'
p4947
I1179
sS'party'
p4948
I3661
sS'terrorism'
p4949
I4712
sS'Canada.'
p4950
I299
sS'difficult'
p4951
I2186
sS'practice'
p4952
I3807
sS'received'
p4953
I3995
sS'we\xe2\x80\x99re'
p4954
I5110
sS'fireman'
p4955
I2560
sS'flesh'
p4956
I2580
sS'faces'
p4957
I2479
sS'upon'
p4958
I4954
sS'effect'
p4959
I2323
sS'Russian-Ukrainian'
p4960
I923
sS'bullying'
p4961
I1655
sS'long-term'
p4962
I3242
sS'Airport'
p4963
I169
sS'Greg'
p4964
I482
sS'never'
p4965
I3482
sS'recriminations'
p4966
I4012
sS'fierce'
p4967
I2533
sS'frequently'
p4968
I2643
sS'toll'
p4969
I4790
sS'nation'
p4970
I3455
sS'lobby'
p4971
I3233
sS'expand'
p4972
I2441
sS'destruction'
p4973
I2164
sS'totally'
p4974
I4800
sS'Houston'
p4975
I512
sS'planted'
p4976
I3751
sS'off'
p4977
I3541
sS'Geneva'
p4978
I465
sS'lunch'
p4979
I3269
sS'\xe2\x80\x9cDuring'
p4980
I5206
sS'approve'
p4981
I1407
sS'Julie'
p4982
I580
sS'contest'
p4983
I1940
sS'well'
p4984
I5101
sS'overshadowed'
p4985
I3629
sS'fighting'
p4986
I2538
sS'States'
p4987
I1014
sS'catastrophically'
p4988
I1722
sS'command'
p4989
I1844
sS'350'
p4990
I94
sS'she'
p4991
I4330
sS'ExxonMobil'
p4992
I418
sS'audio'
p4993
I1472
sS'war\xe2\x80\x9d'
p4994
I5070
sS'drawing'
p4995
I2284
sS'latest'
p4996
I3155
sS'bending'
p4997
I1564
sS'publicly.'
p4998
I3918
sS'arming'
p4999
I1420
sS'rocket'
p5000
I4173
sS'Lennart'
p5001
I643
sS'increasingly'
p5002
I2954
sS'offensive'
p5003
I3544
sS'proximity'
p5004
I3913
sS'Su-25'
p5005
I1027
sS'domestic'
p5006
I2258
sS'mistaken'
p5007
I3391
sS'commemoration.'
p5008
I1850
sS'cries'
p5009
I2022
sS'Sunday'
p5010
I1032
sS'mistakes'
p5011
I3392
sS'distant'
p5012
I2238
sS'paratroopers'
p5013
I3647
sS'day-to-day'
p5014
I2079
sS'Bloomington'
p5015
I263
sS'Pro-Russian'
p5016
I849
sS'Nicholas'
p5017
I765
sS'commemoration'
p5018
I1849
sS'Flynn'
p5019
I437
sS'distress'
p5020
I2243
sS'trained'
p5021
I4828
sS'prove'
p5022
I3900
sS'urged'
p5023
I4960
sS'Giles'
p5024
I469
sS'Bizhev\xe2\x80\x99s'
p5025
I260
sS'residential'
p5026
I4114
sS'\xe2\x80\x9ccontainment.\xe2\x80\x9d'
p5027
I5273
sS'Friday'
p5028
I451
sS'regulatory'
p5029
I4042
sS'capabilities'
p5030
I1691
sS'killed'
p5031
I3119
sS'reasons'
p5032
I3983
sS'off-limits'
p5033
I3542
sS'other'
p5034
I3608
sS'nor'
p5035
I3502
sS'Despite'
p5036
I361
sS'morgue'
p5037
I3415
sS'283'
p5038
I75
sS'possess'
p5039
I3788
sS'285'
p5040
I76
sS'By'
p5041
I290
sS'match'
p5042
I3306
sS'divided'
p5043
I2245
sS'policy,\xe2\x80\x9d'
p5044
I3770
sS'eulogized'
p5045
I2410
sS'definitive'
p5046
I2119
sS'Week.'
p5047
I1147
sS'checking'
p5048
I1759
sS'chancellor'
p5049
I1743
sS'AN-26'
p5050
I145
sS'source.'
p5051
I4461
sS'commemorations'
p5052
I1851
sS'propelled'
p5053
I3886
sS'jets.'
p5054
I3094
sS'milking'
p5055
I3367
sS'were'
p5056
I5106
sS'five'
p5057
I2569
sS'Nelson'
p5058
I759
sS'burden'
p5059
I1656
sS'press'
p5060
I3826
sS'immediately'
p5061
I2915
sS'269'
p5062
I71
sS'prominent'
p5063
I3878
sS'shoot-down'
p5064
I4346
sS'loss'
p5065
I3257
sS'displaced'
p5066
I2229
sS'necessary'
p5067
I3467
sS'Aug.'
p5068
I222
sS'lost'
p5069
I3259
sS'spots.'
p5070
I4500
sS'bloc\xe2\x80\x99s'
p5071
I1594
sS'Within'
p5072
I1167
sS'controllers'
p5073
I1954
sS'war-torn'
p5074
I5057
sS'journalist'
p5075
I3101
sS'Victim'
p5076
I1125
sS'Anders'
p5077
I196
sS'become'
p5078
I1542
sS'China.'
p5079
I316
sS'actions.'
p5080
I1229
sS'sign'
p5081
I4372
sS'poor'
p5082
I3776
sS'indications'
p5083
I2966
sS'because'
p5084
I1541
sS'huge,\xe2\x80\x9d'
p5085
I2885
sS'militia'
p5086
I3364
sS'scared'
p5087
I4238
sS'11.'
p5088
I33
sS'briefly'
p5089
I1636
sS'Mason'
p5090
I705
sS'States\xe2\x80\x99'
p5091
I1016
sS'\xe2\x80\x9cThese'
p5092
I5250
sS'export'
p5093
I2459
sS'Cooperation'
p5094
I332
sS'gave'
p5095
I2684
sS'leery'
p5096
I3181
sS'Speaking'
p5097
I1007
sS'\xe2\x80\x9cWith'
p5098
I5261
sS'happens'
p5099
I2779
sS'Mike'
p5100
I724
sS'Mikael'
p5101
I723
sS'focused'
p5102
I2603
sS'disbelief'
p5103
I2210
sS'0.24'
p5104
I18
sS'other,\xe2\x80\x9d'
p5105
I3609
sS'avoid'
p5106
I1485
sS'thunderstorms'
p5107
I4774
sS'miner'
p5108
I3372
sS'However'
p5109
I513
sS'\xe2\x80\x9d'
p5110
I5308
sS'\xe2\x80\x9cspecial'
p5111
I5294
sS'does'
p5112
I2251
sS'escalated'
p5113
I2399
sS'warfare'
p5114
I5059
sS'board.'
p5115
I1601
sS'L980'
p5116
I624
sS'\xe2\x80\x9cUnspeakable'
p5117
I5254
sS'leader'
p5118
I3170
sS'?'
p5119
I137
sS'penalize'
p5120
I3684
sS'ripped'
p5121
I4164
sS'proof.'
p5122
I3884
sS'\xe2\x80\x9cThis'
p5123
I5252
sS'routes,\xe2\x80\x9d'
p5124
I4189
sS'go.'
p5125
I2708
sS'expanded.'
p5126
I2442
sS'pressure'
p5127
I3828
sS'prohibited'
p5128
I3873
sS'stepmother\xe2\x80\x99s'
p5129
I4534
sS'although'
p5130
I1345
sS'nationalities'
p5131
I3457
sS'reach.'
p5132
I3965
sS'&amp;'
p5133
I9
sS'loans'
p5134
I3232
sS'entirely'
p5135
I2387
sS'hiding'
p5136
I2831
sS'Willem'
p5137
I1162
sS'\xe2\x80\x9cWhen'
p5138
I5259
sS'about'
p5139
I1189
sS'actual'
p5140
I1235
sS'carried'
p5141
I1707
sS'acts.'
p5142
I1234
sS'Igor'
p5143
I523
sS'certainty'
p5144
I1739
sS'or'
p5145
I3594
sS'pro-Russians'
p5146
I3852
sS'in.'
p5147
I2938
sS'recognized'
p5148
I4002
sS'carries'
p5149
I1710
sS'carrier'
p5150
I1708
sS'Americans'
p5151
I187
sS'that\xe2\x80\x99s'
p5152
I4725
sS'Questions'
p5153
I862
sS'herself.'
p5154
I2828
sS'urges'
p5155
I4961
sS'introduced'
p5156
I3049
sS'explicit'
p5157
I2456
sS'executives'
p5158
I2436
sS'alliance'
p5159
I1329
sS'letters'
p5160
I3192
sS'owe'
p5161
I3634
sS'political'
p5162
I3771
sS'zones'
p5163
I5193
sS'year'
p5164
I5182
sS'Two'
p5165
I1089
sS'Rasmussen'
p5166
I876
sS'Writing'
p5167
I1170
sS'included'
p5168
I2948
sS'guard'
p5169
I2749
sS'fighting.'
p5170
I2539
sS'skeptical'
p5171
I4405
sS'shoulder-fired'
p5172
I4362
sS'roads'
p5173
I4172
sS'fraud'
p5174
I2639
sS'fired'
p5175
I2559
sS'regarded'
p5176
I4031
sS'crashed.'
p5177
I2012
sS'additional'
p5178
I1243
sS'Kudryavets'
p5179
I619
sS'road.\xe2\x80\x9d'
p5180
I4171
sS'transfer'
p5181
I4833
sS'frustrations'
p5182
I2653
sS'support'
p5183
I4621
sS'surreptitiously'
p5184
I4632
sS'secret'
p5185
I4264
sS'feat'
p5186
I2511
sS'launcher'
p5187
I3159
sS'backfire.'
p5188
I1500
sS'doing'
p5189
I2255
sS'trigger'
p5190
I4852
sS'inner'
p5191
I2989
sS'frustration'
p5192
I2652
sS'crucially'
p5193
I2042
sS'biggest'
p5194
I1574
sS'Poland\xe2\x80\x99s'
p5195
I833
sS'missing,\xe2\x80\x9d'
p5196
I3388
sS'globe'
p5197
I2706
sS'Prominent'
p5198
I852
sS'stopping'
p5199
I4551
sS'north'
p5200
I3505
sS'complacency'
p5201
I1867
sS'\xe2\x80\x9cthorough'
p5202
I5299
sS'Veering'
p5203
I1122
sS'sound'
p5204
I4457
sS'prospects.\xe2\x80\x9d'
p5205
I3894
sS'but'
p5206
I1668
sS'blaming'
p5207
I1583
sS'volume'
p5208
I5037
sS'repeated'
p5209
I4083
sS'Azrul'
p5210
I231
sS'gain'
p5211
I2670
sS'Iraq.'
p5212
I545
sS'automated'
p5213
I1477
sS'children.'
p5214
I1766
sS'editing'
p5215
I2322
sS'Manpads'
p5216
I691
sS'sprawling'
p5217
I4501
sS'he'
p5218
I2795
sS'made'
p5219
I3271
sS'Tel'
p5220
I1049
sS'notice.'
p5221
I3517
sS'evident'
p5222
I2428
sS'Wall'
p5223
I1138
sS'dangerous'
p5224
I2069
sS'breweries'
p5225
I1631
sS'grieve'
p5226
I2735
sS'oligarchs'
p5227
I3561
sS'signed'
p5228
I4375
sS'this.'
p5229
I4752
sS'Handelsblad.'
p5230
I495
sS'Britain'
p5231
I280
sS'stories'
p5232
I4554
sS'ruling'
p5233
I4201
sS'infants'
p5234
I2978
sS'demonstrate'
p5235
I2130
sS'problem'
p5236
I3856
sS'piece'
p5237
I3720
sS'minutes'
p5238
I3382
sS'odds'
p5239
I3539
sS'urging'
p5240
I4962
sS'firm'
p5241
I2564
sS'entering'
p5242
I2385
sS'deaths'
p5243
I2091
sS'inadequate'
p5244
I2939
sS'works'
p5245
I5158
sS'Writer'
p5246
I1169
sS'wood-picket'
p5247
I5150
sS'---'
p5248
I15
sS'beats'
p5249
I1539
sS'ground-to-air'
p5250
I2739
sS'right'
p5251
I4162
sS'rule'
p5252
I4197
sS'typically'
p5253
I4885
sS'our'
p5254
I3613
sS'commentators'
p5255
I1854
sS'INTACT'
p5256
I520
sS'trace.'
p5257
I4813
sS'campus'
p5258
I1686
sS'balcony'
p5259
I1506
sS'functions'
p5260
I2660
sS'compared'
p5261
I1863
sS'searching'
p5262
I4258
sS'Strelkov'
p5263
I1023
sS'49'
p5264
I108
sS'Jr.'
p5265
I579
sS'44'
p5266
I105
sS'45'
p5267
I106
sS'claiming'
p5268
I1790
sS'40'
p5269
I101
sS'41'
p5270
I103
sS'4.'
p5271
I100
sS'Lufthansa'
p5272
I661
sS'understand.\xe2\x80\x9d'
p5273
I4910
sS'book'
p5274
I1612
sS'details'
p5275
I2166
sS'Rizk'
p5276
I903
sS'Please.'
p5277
I832
sS'vehicle-mounted'
p5278
I4987
sS'essence\xe2\x80\x9d'
p5279
I2406
sS'conclusion'
p5280
I1889
sS'February'
p5281
I423
sS'again.'
p5282
I1269
sS'Like'
p5283
I647
sS'Routh'
p5284
I914
sS'half-mile'
p5285
I2762
sS'driver.'
p5286
I2289
sS'ultimately'
p5287
I4887
sS'stay'
p5288
I4529
sS'April'
p5289
I209
sS'chance'
p5290
I1742
sS'bury.'
p5291
I1661
sS'pathways'
p5292
I3675
sS'reasons.'
p5293
I3984
sS'act,\xe2\x80\x9d'
p5294
I1222
sS'seismic'
p5295
I4280
sS'friends'
p5296
I2646
sS'South'
p5297
I1004
sS'exposure'
p5298
I2463
sS'shock'
p5299
I4338
sS'severe'
p5300
I4314
sS'ways.'
p5301
I5083
sS'\xe2\x80\x94'
p5302
I5194
sS'percent.'
p5303
I3696
sS'starting'
p5304
I4515
sS'Thus'
p5305
I1068
sS'lasted'
p5306
I3150
sS'Friday.'
p5307
I452
sS'indirectly'
p5308
I2968
sS'portion'
p5309
I3782
sS'Amsterdam.'
p5310
I191
sS'475'
p5311
I107
sS'recalled'
p5312
I3994
sS'confronted'
p5313
I1915
sS'gardens'
p5314
I2677
sS'bereaved'
p5315
I1565
sS'businesses.'
p5316
I1666
ssS'dtype'
p5317
cnumpy
float64
p5318
sS'feature_names_'
p5319
(lp5320
g2946
ag3459
ag3712
ag3025
ag2686
ag1952
ag1946
ag1229
ag1929
ag5133
ag4687
ag4932
ag355
ag3695
ag2756
ag5248
ag838
ag213
ag5104
ag134
ag2038
ag1441
ag3268
ag1627
ag291
ag1515
ag4580
ag1904
ag251
ag1930
ag4320
ag2738
ag1903
ag5088
ag1906
ag3860
ag1908
ag3774
ag1907
ag1267
ag1247
ag1249
ag1909
ag487
ag2601
ag2776
ag2775
ag1593
ag4470
ag1870
ag4494
ag3456
ag3027
ag4469
ag1977
ag4003
ag4001
ag4006
ag4366
ag4365
ag790
ag2768
ag4114
ag3029
ag255
ag3030
ag1609
ag3023
ag3024
ag821
ag3662
ag5062
ag3026
ag89
ag3033
ag5038
ag5040
ag78
ag75
ag2265
ag2134
ag3652
ag1254
ag469
ag4149
ag3820
ag4147
ag3646
ag3322
ag4146
ag773
ag4909
ag4152
ag2658
ag4990
ag4151
ag4150
ag402
ag4293
ag2652
ag5271
ag5269
ag363
ag5270
ag3057
ag5266
ag5267
ag5311
ag5264
ag2640
ag1057
ag2226
ag3827
ag1052
ag2882
ag2196
ag2197
ag2198
ag4153
ag4156
ag4058
ag2201
ag3137
ag4399
ag2122
ag2932
ag3319
ag2830
ag3308
ag1069
ag1489
ag3392
ag4850
ag4426
ag214
ag3894
ag4117
ag5119
ag1080
ag280
ag3962
ag4292
ag504
ag1641
ag1781
ag5050
ag2647
ag3980
ag350
ag1162
ag2266
ag2817
ag410
ag4495
ag2848
ag3527
ag4747
ag2062
ag3923
ag3450
ag4601
ag3492
ag659
ag2073
ag3741
ag1748
ag3213
ag2616
ag294
ag4963
ag4099
ag2558
ag4599
ag3083
ag599
ag527
ag1081
ag308
ag2139
ag3996
ag166
ag2390
ag1083
ag4065
ag4118
ag2859
ag2899
ag5151
ag716
ag1498
ag2016
ag5310
ag1014
ag4000
ag2241
ag4890
ag5077
ag143
ag1287
ag3966
ag2781
ag577
ag3448
ag324
ag4578
ag1006
ag2331
ag4910
ag3052
ag5289
ag4717
ag3075
ag4002
ag608
ag1840
ag4005
ag607
ag4635
ag1497
ag4532
ag2648
ag1921
ag5068
ag1532
ag4306
ag4275
ag2811
ag1539
ag3810
ag3946
ag4663
ag5210
ag1552
ag3855
ag252
ag4475
ag1644
ag3067
ag610
ag1758
ag3053
ag4056
ag4015
ag3093
ag4907
ag4729
ag2434
ag1940
ag36
ag3218
ag2145
ag2050
ag4526
ag4229
ag1417
ag328
ag3771
ag2426
ag1440
ag646
ag5025
ag1844
ag4446
ag5015
ag3196
ag3519
ag1711
ag2890
ag3647
ag4740
ag897
ag2314
ag3725
ag4128
ag795
ag1828
ag2551
ag497
ag491
ag3932
ag5231
ag4298
ag1612
ag4552
ag3045
ag4431
ag3145
ag10
ag2218
ag2215
ag5041
ag829
ag1681
ag1738
ag2823
ag4434
ag2663
ag3560
ag1148
ag4950
ag4413
ag550
ag3963
ag3034
ag1768
ag4568
ag1600
ag2456
ag432
ag936
ag3000
ag443
ag3620
ag572
ag3518
ag4444
ag5079
ag4144
ag120
ag3983
ag313
ag4931
ag723
ag633
ag1457
ag1622
ag3608
ag1082
ag2930
ag2849
ag3141
ag490
ag5094
ag3655
ag34
ag246
ag2019
ag3089
ag2746
ag3807
ag552
ag4017
ag220
ag1511
ag4137
ag1007
ag2084
ag2976
ag3215
ag1368
ag1369
ag3119
ag2674
ag663
ag3825
ag1958
ag1510
ag4076
ag319
ag2192
ag3217
ag5036
ag4593
ag2675
ag4311
ag60
ag624
ag3501
ag730
ag3602
ag1638
ag800
ag3276
ag2982
ag2451
ag3134
ag2336
ag3732
ag1464
ag4264
ag823
ag752
ag232
ag2108
ag2159
ag2464
ag4523
ag2783
ag1992
ag4514
ag3821
ag335
ag2586
ag3949
ag3336
ag1135
ag1801
ag1194
ag3629
ag1618
ag476
ag1708
ag4350
ag2975
ag489
ag4445
ag2868
ag4284
ag3547
ag667
ag80
ag1791
ag4595
ag3168
ag331
ag4658
ag2985
ag4739
ag4992
ag4724
ag3649
ag411
ag1379
ag5281
ag1599
ag2950
ag4903
ag3671
ag1167
ag2010
ag496
ag3603
ag340
ag1134
ag593
ag4354
ag3491
ag5019
ag303
ag3436
ag4894
ag2972
ag3769
ag26
ag397
ag4551
ag3416
ag1271
ag3799
ag357
ag3387
ag5028
ag5307
ag4408
ag3806
ag1224
ag2660
ag630
ag332
ag1383
ag1260
ag4039
ag3244
ag3074
ag4902
ag4978
ag582
ag3305
ag3299
ag5024
ag806
ag732
ag3840
ag1409
ag2470
ag1466
ag2462
ag2447
ag1132
ag1160
ag3522
ag2109
ag4964
ag106
ag4226
ag3794
ag1145
ag2998
ag2216
ag4842
ag3124
ag4716
ag4942
ag141
ag3945
ag5230
ag299
ag3965
ag1115
ag169
ag4304
ag2782
ag4370
ag73
ag356
ag1439
ag3368
ag351
ag3553
ag4051
ag4448
ag2590
ag4975
ag5109
ag683
ag3753
ag3253
ag2475
ag2320
ag710
ag5256
ag2358
ag3961
ag5143
ag3041
ag2884
ag2352
ag1526
ag395
ag3191
ag743
ag1246
ag1479
ag2518
ag3500
ag99
ag583
ag942
ag4417
ag3950
ag1741
ag2184
ag4068
ag460
ag4529
ag5212
ag818
ag2971
ag4294
ag2900
ag4257
ag2369
ag4754
ag2345
ag4725
ag1571
ag1775
ag631
ag3427
ag916
ag1034
ag2697
ag4797
ag3920
ag1008
ag4694
ag4019
ag1779
ag4303
ag739
ag4693
ag611
ag1522
ag3465
ag678
ag3114
ag1253
ag2750
ag267
ag5265
ag4982
ag4788
ag187
ag4881
ag1404
ag1349
ag170
ag2294
ag679
ag3008
ag2164
ag3240
ag2253
ag828
ag4665
ag1745
ag3148
ag4064
ag655
ag3301
ag3482
ag3377
ag1704
ag1690
ag4345
ag1298
ag616
ag2223
ag2788
ag1173
ag3878
ag1579
ag4943
ag2023
ag4590
ag4394
ag2255
ag4170
ag4883
ag5179
ag3726
ag1616
ag498
ag1726
ag5116
ag4916
ag2351
ag2631
ag4208
ag749
ag1815
ag3733
ag1302
ag622
ag3269
ag796
ag284
ag968
ag4776
ag2641
ag708
ag4676
ag1757
ag5001
ag1013
ag1108
ag1473
ag5283
ag4768
ag775
ag3660
ag3841
ag2321
ag986
ag1245
ag2428
ag1747
ag2069
ag2612
ag628
ag4179
ag5272
ag2681
ag2013
ag2532
ag3979
ag3819
ag3572
ag1461
ag1220
ag1433
ag61
ag1472
ag809
ag958
ag3669
ag4300
ag244
ag3432
ag2441
ag3985
ag1773
ag2298
ag2274
ag3866
ag3903
ag3993
ag4545
ag2342
ag3778
ag1696
ag5216
ag1450
ag29
ag2402
ag2439
ag2161
ag86
ag2155
ag3804
ag4863
ag3727
ag2444
ag1995
ag664
ag5090
ag90
ag3415
ag2347
ag1326
ag28
ag990
ag957
ag4623
ag2445
ag2538
ag221
ag1305
ag101
ag3059
ag3586
ag3849
ag4318
ag5101
ag5100
ag398
ag4415
ag3730
ag205
ag4648
ag142
ag4013
ag1860
ag1561
ag2702
ag3123
ag3800
ag1182
ag4761
ag4270
ag2004
ag3384
ag272
ag1236
ag4198
ag3967
ag4239
ag534
ag154
ag2005
ag2275
ag1948
ag72
ag632
ag471
ag4878
ag1279
ag1568
ag3453
ag5058
ag4037
ag691
ag2453
ag1022
ag2529
ag5017
ag4178
ag1759
ag3154
ag2523
ag4066
ag2700
ag3881
ag4511
ag1896
ag3809
ag4031
ag2063
ag2386
ag2487
ag4157
ag4044
ag656
ag1032
ag2562
ag2692
ag919
ag1803
ag3285
ag4877
ag3919
ag3259
ag3731
ag1715
ag4317
ag140
ag2779
ag3542
ag702
ag1451
ag1449
ag4582
ag682
ag1590
ag4569
ag4811
ag2966
ag3752
ag492
ag703
ag2948
ag3471
ag77
ag3874
ag4712
ag2552
ag1067
ag3169
ag1476
ag1807
ag4571
ag782
ag4760
ag4462
ag3587
ag3166
ag2234
ag1023
ag2894
ag2416
ag2588
ag3561
ag5277
ag5195
ag3010
ag875
ag547
ag4879
ag348
ag1875
ag3290
ag932
ag3513
ag522
ag3162
ag4554
ag3396
ag1959
ag824
ag5016
ag3139
ag4129
ag5198
ag2809
ag4677
ag910
ag4032
ag1619
ag3209
ag3068
ag1855
ag4541
ag5153
ag1981
ag1736
ag2064
ag4344
ag3347
ag3326
ag3933
ag1669
ag642
ag1753
ag248
ag4024
ag2419
ag5166
ag2178
ag159
ag2602
ag2259
ag1629
ag1578
ag200
ag3703
ag4679
ag4864
ag4054
ag163
ag4223
ag2222
ag3801
ag1353
ag4789
ag673
ag3461
ag2979
ag1789
ag2033
ag2863
ag4885
ag2465
ag3605
ag5276
ag1172
ag4172
ag1028
ag1117
ag3842
ag1286
ag2017
ag1941
ag1425
ag2537
ag5284
ag1838
ag905
ag1477
ag3834
ag978
ag2924
ag2883
ag3747
ag4960
ag4680
ag3609
ag4896
ag157
ag3444
ag1956
ag1592
ag1763
ag2077
ag2481
ag2448
ag3005
ag3190
ag2650
ag2584
ag1813
ag417
ag1863
ag4177
ag2554
ag2610
ag3129
ag4387
ag2350
ag4793
ag4655
ag2334
ag1712
ag436
ag4266
ag3918
ag1608
ag4004
ag564
ag870
ag175
ag560
ag4467
ag4755
ag4647
ag995
ag1364
ag3915
ag2332
ag3927
ag1114
ag3100
ag3907
ag2362
ag2060
ag4276
ag4866
ag1954
ag3868
ag3366
ag1732
ag1300
ag731
ag3902
ag4615
ag3186
ag91
ag4868
ag3788
ag1428
ag3199
ag2442
ag4851
ag1853
ag2029
ag964
ag2578
ag1011
ag2591
ag591
ag1332
ag2596
ag2449
ag4644
ag203
ag5297
ag2468
ag704
ag5097
ag831
ag3838
ag1025
ag1373
ag240
ag4093
ag4987
ag533
ag5091
ag3514
ag1151
ag1836
ag924
ag4922
ag2677
ag5263
ag3554
ag2014
ag3606
ag5005
ag4692
ag43
ag1874
ag374
ag5010
ag1169
ag2340
ag160
ag3701
ag4563
ag738
ag2978
ag2877
ag401
ag4722
ag192
ag3958
ag4908
ag654
ag1418
ag4709
ag5220
ag2577
ag971
ag2126
ag3325
ag3869
ag3657
ag590
ag1837
ag1523
ag1560
ag606
ag4455
ag375
ag3929
ag2546
ag2617
ag1553
ag1831
ag5305
ag1337
ag4833
ag3883
ag3947
ag2861
ag1088
ag1241
ag2012
ag2233
ag407
ag3203
ag1388
ag3021
ag3474
ag137
ag4082
ag2415
ag660
ag3921
ag4594
ag5165
ag3700
ag488
ag2411
ag4504
ag2151
ag3142
ag3310
ag2564
ag2880
ag2142
ag4227
ag3291
ag2960
ag657
ag1564
ag4547
ag1809
ag2360
ag450
ag4067
ag4826
ag24
ag4847
ag925
ag2901
ag1492
ag315
ag896
ag2311
ag4728
ag466
ag1785
ag5203
ag4016
ag854
ag5076
ag2846
ag222
ag3127
ag2071
ag742
ag3887
ag2653
ag1851
ag2840
ag3595
ag4458
ag172
ag5223
ag3541
ag4012
ag3540
ag711
ag3118
ag2043
ag4216
ag789
ag5047
ag266
ag2440
ag1478
ag37
ag3001
ag3762
ag3737
ag1397
ag4707
ag3408
ag1694
ag1235
ag1636
ag292
ag5137
ag2598
ag1303
ag1325
ag3303
ag5072
ag1714
ag5246
ag5167
ag4521
ag3748
ag3523
ag4696
ag4921
ag3521
ag3132
ag3198
ag4947
ag1802
ag2983
ag4825
ag1481
ag4796
ag1278
ag4602
ag1820
ag602
ag5139
ag108
ag3504
ag1226
ag3782
ag2935
ag1562
ag3324
ag4110
ag574
ag786
ag3972
ag1411
ag1166
ag4401
ag1910
ag2175
ag4233
ag3889
ag2348
ag2531
ag273
ag2408
ag4059
ag1917
ag4749
ag4576
ag4701
ag1703
ag317
ag4752
ag2094
ag2511
ag5294
ag2995
ag2843
ag2406
ag3197
ag2366
ag3596
ag5080
ag126
ag2116
ag4443
ag3441
ag5142
ag5140
ag3035
ag2413
ag803
ag3309
ag4160
ag1005
ag4854
ag5178
ag1485
ag4176
ag1446
ag1723
ag2764
ag2365
ag4935
ag4844
ag4520
ag1048
ag1387
ag3648
ag1384
ag3714
ag228
ag3739
ag56
ag370
ag2144
ag4596
ag287
ag127
ag1146
ag2243
ag2629
ag5282
ag794
ag4803
ag982
ag4073
ag2037
ag1354
ag3988
ag1029
ag4841
ag2527
ag3823
ag4897
ag2832
ag2888
ag888
ag419
ag1689
ag885
ag2860
ag884
ag1678
ag1699
ag909
ag548
ag557
ag3211
ag3495
ag1537
ag2510
ag2263
ag2213
ag4055
ag4023
ag2393
ag4493
ag2214
ag4411
ag2525
ag886
ag2943
ag2839
ag4361
ag387
ag1518
ag4169
ag1756
ag1797
ag3279
ag3157
ag2479
ag617
ag637
ag2689
ag4741
ag2076
ag1389
ag2550
ag1884
ag3676
ag5159
ag4483
ag4474
ag3405
ag4321
ag1611
ag3982
ag2834
ag3048
ag4168
ag4912
ag1486
ag1488
ag3013
ag3297
ag3706
ag5130
ag1180
ag258
ag700
ag3080
ag2615
ag2539
ag1203
ag3689
ag4425
ag325
ag314
ag2186
ag605
ag2618
ag3677
ag1223
ag145
ag1926
ag1943
ag687
ag1994
ag1538
ag4346
ag3410
ag4295
ag2150
ag4450
ag2375
ag4236
ag3511
ag3777
ag4349
ag502
ag2576
ag274
ag2816
ag3780
ag3251
ag879
ag926
ag1867
ag3839
ag4735
ag4668
ag482
ag4245
ag1049
ag4930
ag2491
ag3686
ag2627
ag4589
ag887
ag1447
ag4900
ag810
ag1491
ag4182
ag877
ag760
ag3870
ag4981
ag3328
ag4574
ag4479
ag4660
ag4333
ag4779
ag2099
ag1693
ag1983
ag1933
ag3455
ag2864
ag4999
ag3601
ag148
ag188
ag4891
ag183
ag2030
ag2399
ag2587
ag1591
ag3664
ag1735
ag3061
ag2642
ag247
ag2621
ag1960
ag3158
ag804
ag4792
ag1107
ag3565
ag1990
ag3537
ag3386
ag197
ag4886
ag989
ag3584
ag2322
ag1452
ag285
ag3904
ag448
ag3071
ag2547
ag3214
ag921
ag2623
ag465
ag1348
ag4524
ag1109
ag2608
ag3351
ag1138
ag310
ag1207
ag92
ag3490
ag1071
ag4823
ag4993
ag3454
ag1311
ag3019
ag1189
ag5213
ag2317
ag262
ag3481
ag2006
ag866
ag2147
ag993
ag5106
ag960
ag1765
ag1817
ag1580
ag208
ag748
ag3635
ag3421
ag341
ag2951
ag4022
ag3784
ag2986
ag528
ag5188
ag3617
ag2827
ag281
ag890
ag1165
ag5259
ag719
ag377
ag1355
ag3349
ag384
ag3426
ag2997
ag3404
ag707
ag4911
ag1991
ag3345
ag4463
ag3153
ag4684
ag1545
ag842
ag2902
ag2032
ag3423
ag3528
ag763
ag1356
ag880
ag1070
ag1742
ag3814
ag1183
ag3370
ag2494
ag4515
ag1113
ag5249
ag3517
ag5084
ag5078
ag4213
ag1208
ag4561
ag837
ag347
ag3977
ag4933
ag1978
ag546
ag4393
ag1761
ag1575
ag349
ag117
ag3228
ag2363
ag3242
ag1589
ag2705
ag4777
ag4215
ag4997
ag5315
ag927
ag740
ag358
ag1654
ag2137
ag3121
ag3738
ag931
ag5194
ag1318
ag4649
ag2962
ag1531
ag1876
ag2056
ag2154
ag956
ag5207
ag1396
ag4392
ag45
ag2389
ag3856
ag2741
ag4196
ag3852
ag217
ag1643
ag5071
ag3205
ag1879
ag1520
ag4492
ag94
ag1018
ag5115
ag722
ag3397
ag4901
ag923
ag962
ag2357
ag3970
ag4122
ag3544
ag2140
ag5274
ag1242
ag1467
ag3031
ag2254
ag2225
ag2371
ag1265
ag1665
ag3505
ag1099
ag1163
ag1494
ag2701
ag1042
ag754
ag478
ag3165
ag376
ag5225
ag2795
ag717
ag774
ag4173
ag5089
ag4047
ag4670
ag57
ag4095
ag1891
ag2771
ag2903
ag4145
ag3110
ag165
ag787
ag3791
ag2836
ag2668
ag4291
ag3289
ag2774
ag2669
ag4961
ag5059
ag31
ag1121
ag3476
ag2522
ag5291
ag2092
ag2478
ag2614
ag3367
ag5316
ag669
ag5206
ag2931
ag1542
ag2572
ag2754
ag4688
ag768
ag2446
ag3252
ag193
ag2176
ag4736
ag2671
ag651
ag434
ag2146
ag693
ag455
ag5258
ag1587
ag2202
ag2285
ag480
ag5030
ag1118
ag3085
ag1642
ag2211
ag4115
ag3724
ag3759
ag2373
ag4640
ag4041
ag2794
ag3077
ag1805
ag3371
ag1443
ag5141
ag5150
ag265
ag5149
ag1848
ag4221
ag1793
ag2249
ag1517
ag1572
ag1116
ag2264
ag216
ag920
ag2712
ag4988
ag66
ag2693
ag604
ag254
ag1919
ag4326
ag4945
ag4895
ag4079
ag4339
ag3245
ag4048
ag2496
ag260
ag2613
ag1363
ag5144
ag3300
ag4080
ag5290
ag5049
ag2573
ag95
ag138
ag151
ag2330
ag1975
ag1020
ag4437
ag2878
ag899
ag3094
ag3350
ag2343
ag277
ag1044
ag5048
ag734
ag1663
ag4319
ag865
ag2707
ag3795
ag5214
ag892
ag1391
ag1645
ag4125
ag2862
ag3536
ag110
ag4028
ag3393
ag2130
ag316
ag2162
ag4038
ag3576
ag1141
ag3232
ag2678
ag1514
ag1159
ag1725
ag813
ag1595
ag4919
ag5268
ag975
ag506
ag3036
ag394
ag19
ag3337
ag869
ag3638
ag1996
ag206
ag3195
ag1187
ag3926
ag2853
ag3452
ag4829
ag4785
ag3193
ag4436
ag4251
ag946
ag1197
ag1076
ag1615
ag1412
ag779
ag2913
ag4507
ag27
ag1405
ag2917
ag3150
ag3991
ag1719
ag4766
ag4622
ag530
ag1470
ag3050
ag4556
ag3765
ag3563
ag3520
ag2117
ag2219
ag2180
ag3394
ag4621
ag3569
ag2220
ag2163
ag2125
ag1639
ag4989
ag2284
ag1072
ag21
ag1045
ag5018
ag5008
ag5052
ag4832
ag3812
ag5255
ag1103
ag4131
ag3017
ag3016
ag4201
ag3532
ag69
ag1294
ag5261
ag2292
ag2635
ag643
ag5201
ag3223
ag1667
ag901
ag139
ag928
ag1800
ag3640
ag3263
ag4089
ag1285
ag4263
ag3658
ag519
ag2232
ag3582
ag3571
ag3893
ag1973
ag4036
ag4606
ag3844
ag5280
ag1133
ag3713
ag2667
ag3679
ag2945
ag939
ag834
ag1777
ag2749
ag3478
ag4638
ag3249
ag4130
ag109
ag3174
ag825
ag4049
ag917
ag1902
ag3651
ag3960
ag4409
ag4466
ag3758
ag1127
ag5313
ag1603
ag1323
ag4786
ag1317
ag906
ag3516
ag2115
ag2748
ag4641
ag3131
ag2691
ag1153
ag1238
ag778
ag409
ag988
ag1998
ag1939
ag1181
ag4652
ag4416
ag2256
ag970
ag2873
ag4983
ag2565
ag2190
ag3766
ag4062
ag3822
ag3260
ag2804
ag102
ag1104
ag4026
ag4255
ag4872
ag4880
ag5073
ag4690
ag2355
ag4482
ag4946
ag874
ag3243
ag4184
ag2025
ag1507
ag4218
ag756
ag3909
ag2353
ag4884
ag1707
ag3469
ag1898
ag1343
ag4769
ag3645
ag2105
ag1786
ag3479
ag1436
ag3615
ag2349
ag4478
ag3785
ag1610
ag1227
ag107
ag3070
ag2619
ag948
ag709
ag4917
ag4906
ag2969
ag1056
ag3115
ag554
ag173
ag934
ag4732
ag279
ag2949
ag1847
ag3339
ag4063
ag1362
ag4904
ag862
ag2999
ag4600
ag4920
ag186
ag1646
ag5177
ag1372
ag3552
ag468
ag3485
ag1036
ag4573
ag2205
ag1234
ag1191
ag5009
ag2052
ag2785
ag459
ag3562
ag416
ag4362
ag301
ag30
ag1527
ag4043
ag2469
ag155
ag1893
ag390
ag4936
ag4603
ag4246
ag4400
ag1078
ag5193
ag3365
ag46
ag2797
ag2103
ag4530
ag2120
ag3797
ag4570
ag3378
ag3161
ag2207
ag4231
ag1218
ag3711
ag1692
ag4379
ag4512
ag1328
ag1613
ag963
ag289
ag526
ag1345
ag3526
ag3716
ag2257
ag5224
ag3691
ag2569
ag2405
ag1310
ag1651
ag1649
ag2541
ag4384
ag4027
ag5014
ag437
ag472
ag3493
ag2455
ag695
ag1124
ag1217
ag4870
ag2699
ag4220
ag2377
ag5243
ag2912
ag2698
ag781
ag4678
ag2744
ag736
ag1336
ag4174
ag2729
ag2706
ag2559
ag2106
ag944
ag4608
ag2521
ag1596
ag115
ag4853
ag2722
ag3302
ag853
ag2792
ag4875
ag4435
ag3447
ag1764
ag3954
ag5046
ag4126
ag2570
ag98
ag3722
ag4802
ag4133
ag17
ag290
ag3736
ag4630
ag5235
ag4517
ag2923
ag4928
ag2081
ag1111
ag403
ag1093
ag1155
ag1401
ag1096
ag2086
ag4639
ag3953
ag3999
ag1186
ag1365
ag772
ag735
ag4810
ag3913
ag1273
ag1003
ag2915
ag930
ag3548
ag1647
ag4368
ag4135
ag2952
ag4334
ag3292
ag2942
ag2209
ag4973
ag2606
ag5275
ag972
ag3101
ag858
ag3099
ag1377
ag2533
ag4675
ag4477
ag638
ag2759
ag3653
ag1740
ag3331
ag1406
ag3358
ag1316
ag4192
ag1237
ag1658
ag4951
ag278
ag1050
ag4085
ag1144
ag1344
ag766
ag1913
ag4835
ag87
ag1755
ag2228
ag1846
ag2323
ag2403
ag1122
ag2261
ag2410
ag4390
ag727
ag1195
ag1787
ag1766
ag2820
ag5103
ag4451
ag764
ag1209
ag1434
ag1739
ag2502
ag2100
ag4324
ag3069
ag788
ag4645
ag4464
ag4009
ag4614
ag2645
ag2959
ag1724
ag686
ag5066
ag1335
ag1686
ag2396
ag1984
ag446
ag3224
ag457
ag3402
ag5012
ag2078
ag3499
ag1942
ag3475
ag5020
ag4123
ag5043
ag689
ag4422
ag2376
ag3239
ag951
ag5112
ag649
ag1620
ag4072
ag5189
ag1140
ag1750
ag5006
ag1783
ag3192
ag559
ag609
ag1262
ag3734
ag1091
ag1274
ag3250
ag4197
ag3136
ag3708
ag3090
ag343
ag2337
ag4484
ag3917
ag1567
ag589
ag845
ag1871
ag2059
ag2239
ag4045
ag3971
ag4995
ag757
ag1865
ag121
ag3164
ag5286
ag431
ag4254
ag429
ag2288
ag855
ag2489
ag4830
ag3555
ag2072
ag3412
ag3138
ag400
ag4347
ag2730
ag3668
ag4283
ag1922
ag4034
ag366
ag1024
ag54
ag4406
ag4691
ag4498
ag967
ag3690
ag3787
ag882
ag1637
ag4497
ag3681
ag3678
ag5215
ag4959
ag311
ag3754
ag379
ag4806
ag1574
ag1150
ag4629
ag2429
ag2892
ag891
ag1085
ag507
ag3641
ag1030
ag58
ag2806
ag4790
ag3354
ag1722
ag2267
ag1780
ag3735
ag3710
ag2599
ag4385
ag2242
ag2796
ag4816
ag1395
ag76
ag4342
ag1751
ag555
ag438
ag494
ag263
ag4767
ag2575
ag440
ag661
ag2191
ag2432
ag1555
ag1799
ag3105
ag4142
ag2282
ag513
ag3111
ag132
ag1854
ag830
ag2392
ag4762
ag2567
ag4525
ag2622
ag1633
ag597
ag981
ag1985
ag5242
ag3055
ag5135
ag1073
ag815
ag635
ag1728
ag1964
ag162
ag1823
ag2482
ag4243
ag3216
ag895
ag5113
ag4053
ag2508
ag508
ag96
ag2920
ag2003
ag5279
ag1101
ag615
ag3862
ag5045
ag83
ag612
ag3051
ag2673
ag3122
ag4210
ag1944
ag2313
ag112
ag22
ag52
ag2312
ag4662
ag2530
ag1105
ag1256
ag1059
ag5222
ag4542
ag237
ag1458
ag3802
ag2383
ag872
ag3399
ag5158
ag4120
ag570
ag4340
ag4402
ag4972
ag5126
ag843
ag3176
ag2096
ag339
ag802
ag3462
ag1258
ag907
ag672
ag161
ag2585
ag900
ag603
ag5157
ag3229
ag2556
ag5093
ag690
ag3330
ag3885
ag5298
ag3258
ag4109
ag2704
ag765
ag2318
ag620
ag2394
ag1054
ag2709
ag3327
ag1352
ag1178
ag3666
ag4646
ag783
ag4957
ag4486
ag1158
ag4656
ag2906
ag997
ag1026
ag3388
ag965
ag2124
ag3836
ag2745
ag3180
ag1465
ag4708
ag3466
ag852
ag2850
ag3206
ag3407
ag2743
ag3470
ag2735
ag4473
ag994
ag4628
ag1385
ag3772
ag1931
ag4780
ag3237
ag3147
ag5186
ag2493
ag566
ag4315
ag3188
ag996
ag1308
ag737
ag4165
ag2247
ag4887
ag15
ag1833
ag475
ag4211
ag4183
ag3843
ag3882
ag2637
ag680
ag2188
ag1177
ag4967
ag1184
ag3321
ag3992
ag991
ag4986
ag5170
ag2310
ag3910
ag1468
ag860
ag365
ag4531
ag1375
ag4926
ag3207
ag412
ag3247
ag3375
ag1430
ag755
ag1342
ag103
ag3575
ag2953
ag1796
ag5175
ag4955
ag1760
ag1597
ag4355
ag5241
ag3413
ag1827
ag3227
ag2561
ag5057
ag1327
ag520
ag3899
ag3682
ag1583
ag1499
ag3187
ag1442
ag2118
ag2661
ag4956
ag4376
ag3573
ag2534
ag4078
ag2580
ag3424
ag2424
ag3389
ag2290
ag1263
ag3112
ag639
ag3125
ag2875
ag3007
ag2879
ag3891
ag3663
ag1576
ag1830
ag2740
ag4848
ag5102
ag784
ag4102
ag2703
ag998
ag123
ag4727
ag1063
ag3056
ag2367
ag1098
ag82
ag3938
ag1679
ag2885
ag3892
ag2644
ag4438
ag3435
ag4167
ag3020
ag1204
ag3751
ag2246
ag4077
ag1607
ag1892
ag4838
ag3219
ag3091
ag2696
ag16
ag51
ag3811
ag3417
ag2821
ag5174
ag1126
ag453
ag4756
ag4968
ag1878
ag4837
ag5296
ag1794
ag2977
ag4189
ag4382
ag71
ag5192
ag5182
ag4698
ag4592
ag4476
ag2808
ag3699
ag2430
ag5260
ag1843
ag3890
ag4432
ag55
ag2766
ag3610
ag1250
ag1170
ag4633
ag5211
ag4207
ag3401
ag3659
ag3743
ag4855
ag4813
ag5314
ag3577
ag275
ag2359
ag4643
ag3431
ag1928
ag5095
ag4154
ag4537
ag1955
ag4267
ag3062
ag177
ag4332
ag3650
ag2068
ag3076
ag4240
ag3379
ag4256
ag2088
ag2624
ag3871
ag3333
ag1856
ag4108
ag1347
ag2250
ag5197
ag2778
ag5125
ag1653
ag4657
ag1462
ag992
ag2055
ag2607
ag2286
ag442
ag1795
ag857
ag1683
ag1339
ag1399
ag4501
ag3600
ag2301
ag2603
ag470
ag1598
ag4141
ag4371
ag386
ag949
ag3248
ag209
ag503
ag5226
ag4485
ag3385
ag2041
ag5250
ag4794
ag4770
ag1700
ag2374
ag1484
ag2409
ag4098
ag396
ag3179
ag5169
ag2690
ag3437
ag3611
ag562
ag1503
ag2047
ag4743
ag3956
ag2803
ag1012
ag1734
ag3549
ag5285
ag1272
ag4241
ag3477
ag4242
ag2872
ag461
ag4700
ag1282
ag4704
ag1582
ag4381
ag20
ag1231
ag2471
ag1040
ag1321
ag5099
ag3106
ag2772
ag2291
ag4915
ag3098
ag4625
ag2082
ag4874
ag873
ag1916
ag596
ag4585
ag3908
ag4011
ag1456
ag5218
ag1201
ag3264
ag724
ag79
ag3707
ag3135
ag3719
ag1216
ag1606
ag512
ag2002
ag1214
ag805
ag3959
ag1475
ag3096
ag933
ag3867
ag816
ag4733
ag3467
ag3012
ag863
ag2224
ag4798
ag2212
ag3004
ag2909
ag2545
ag777
ag1509
ag1617
ag5154
ag364
ag97
ag5136
ag4268
ag2484
ag4206
ag1445
ag2988
ag404
ag202
ag4939
ag164
ag4356
ag543
ag2626
ag1432
ag1358
ag3975
ag4271
ag3183
ag2929
ag3400
ag3557
ag215
ag1289
ag3997
ag2090
ag4181
ag4869
ag4454
ag2734
ag4163
ag3906
ag3616
ag3373
ag592
ag545
ag2841
ag2737
ag2152
ag288
ag3831
ag218
ag1142
ag4720
ag271
ag3230
ag1682
ag2941
ag2818
ag2940
ag3151
ag270
ag770
ag3241
ag2947
ag5085
ag125
ag119
ag3338
ag383
ag725
ag2620
ag122
ag1064
ag225
ag1055
ag2713
ag979
ag1313
ag2102
ag153
ag1895
ag1426
ag3108
ag1965
ag4783
ag4391
ag3826
ag915
ag3764
ag904
ag4021
ag4859
ag2452
ag3320
ag5061
ag3236
ag2079
ag2755
ag2132
ag2980
ag1584
ag4272
ag2187
ag2639
ag3254
ag4799
ag3567
ag241
ag3755
ag4329
ag2110
ag1849
ag3974
ag4175
ag2555
ag3508
ag2339
ag5147
ag5244
ag881
ag940
ag614
ag4822
ag3851
ag1586
ag3498
ag2911
ag5168
ag2717
ag1776
ag3633
ag4924
ag111
ag5002
ag2058
ag1264
ag4697
ag1047
ag3395
ag937
ag3990
ag4104
ag243
ag4046
ag3767
ag5083
ag3512
ag5308
ag1825
ag4565
ag3039
ag2526
ag4249
ag4348
ag2500
ag1788
ag4209
ag5234
ag1901
ag3943
ag2990
ag1640
ag2524
ag2837
ag2490
ag239
ag3488
ag1986
ag5191
ag1019
ag2307
ag2560
ag2101
ag2195
ag954
ag2040
ag4682
ag2169
ag4604
ag4817
ag1937
ag4287
ag4101
ag1501
ag3487
ag3442
ag4040
ag1962
ag2287
ag3072
ag3583
ag685
ag189
ag1536
ag1051
ag4461
ag3298
ag1202
ag1255
ag2454
ag23
ag3439
ag337
ag3618
ag2968
ag3212
ag4759
ag1309
ag2646
ag2918
ag841
ag4534
ag4583
ag405
ag1970
ag3717
ag1702
ag3081
ag3311
ag4746
ag4447
ag3922
ag1729
ag236
ag3231
ag3181
ag3864
ag152
ag5156
ag3875
ag156
ag2271
ag1569
ag1454
ag1945
ag4421
ag3095
ag2251
ag2791
ag2784
ag227
ag3901
ag4820
ag4718
ag250
ag1359
ag298
ag4164
ag3848
ag812
ag898
ag2499
ag600
ag3994
ag2757
ag4018
ag2799
ag2138
ag715
ag2277
ag136
ag4654
ag3624
ag1329
ag2384
ag2193
ag3167
ag2107
ag256
ag1782
ag1810
ag976
ag2160
ag5054
ag1281
ag1934
ag2989
ag2148
ag4714
ag4132
ag5075
ag2341
ag4539
ag1046
ag2128
ag1283
ag4252
ag3256
ag983
ag3382
ag3543
ag699
ag2315
ag2143
ag4481
ag2910
ag959
ag4808
ag5031
ag2015
ag2153
ag2135
ag3530
ag4386
ag952
ag3406
ag3246
ag3341
ag645
ag3687
ag2905
ag893
ag2891
ag2694
ag1652
ag2716
ag441
ag2574
ag4353
ag1210
ag4364
ag2238
ag3813
ag2762
ag4007
ag3614
ag3058
ag1232
ag549
ag5306
ag4042
ag1969
ag2007
ag697
ag4996
ag733
ag2916
ag4420
ag5187
ag3829
ag878
ag1918
ag302
ag1792
ag2725
ag296
ag297
ag1453
ag4199
ag5118
ag3793
ag1004
ag2488
ag1351
ag2802
ag2200
ag4328
ag1413
ag3630
ag4124
ag5096
ag980
ag4127
ag2544
ag2466
ag2302
ag286
ag1993
ag3149
ag668
ag4929
ag5160
ag3022
ag1248
ag3286
ag1744
ag850
ag728
ag1043
ag3846
ag2625
ag676
ag4313
ag320
ag2270
ag184
ag556
ag3535
ag1718
ag1698
ag9
ag4562
ag4818
ag259
ag3911
ag4323
ag4301
ag4260
ag2760
ag681
ag3265
ag1630
ag3296
ag3210
ag1164
ag4433
ag452
ag1544
ag3581
ag167
ag820
ag5134
ag4971
ag2814
ag4699
ag2051
ag1811
ag2208
ag3886
ag3888
ag1661
ag4962
ag1435
ag623
ag2583
ag3639
ag542
ag2727
ag3592
ag1269
ag1459
ag4341
ag4338
ag282
ag1535
ag1129
ag5065
ag1420
ag5069
ag2557
ag484
ag3346
ag4555
ag4533
ag3473
ag2039
ag1199
ag408
ag4979
ag3352
ag5219
ag4513
ag4395
ag4893
ag322
ag3009
ag4232
ag922
ag2427
ag4162
ag4138
ag3718
ag2919
ag648
ag1341
ag4510
ag4667
ag2127
ag1980
ag4873
ag418
ag3763
ag1798
ag4548
ag2173
ag4689
ag912
ag1519
ag1528
ag1233
ag3144
ag1270
ag1731
ag67
ag518
ag5042
ag4375
ag4285
ag3463
ag3742
ag3859
ag2114
ag4441
ag346
ag219
ag3987
ag2513
ag3981
ag1861
ag4706
ag4702
ag4357
ag3685
ag3314
ag2199
ag2300
ag2049
ag4302
ag2515
ag1771
ag2542
ag4620
ag4250
ag3566
ag4383
ag658
ag421
ag3156
ag3935
ag1673
ag1936
ag4010
ag1850
ag4404
ag1290
ag124
ag3941
ag1084
ag2752
ag2657
ag4791
ag3046
ag4751
ag1920
ag3201
ag2503
ag619
ag3876
ag3018
ag149
ag1460
ag1546
ag1193
ag5086
ag3698
ag1320
ag5055
ag3688
ag116
ag575
ag4782
ag5108
ag4020
ag3257
ag2939
ag4558
ag4244
ag4194
ag3627
ag3607
ag1398
ag5238
ag3986
ag3348
ag2295
ag1659
ag4775
ag5196
ag2074
ag150
ag5007
ag5011
ag3684
ag4397
ag1721
ag2354
ag1299
ag4480
ag4035
ag3579
ag114
ag381
ag3312
ag2364
ag1701
ag2024
ag2695
ag1110
ag1474
ag4843
ag1749
ag1065
ag2887
ag4061
ag5037
ag4934
ag2540
ag233
ag1822
ag3318
ag594
ag3278
ag2258
ag4852
ag1927
ag3896
ag2260
ag454
ag1951
ag4188
ag2566
ag4703
ag4204
ag2805
ag1624
ag481
ag1563
ag840
ag1087
ag3084
ag529
ag3381
ag4214
ag1381
ag1502
ag1864
ag3073
ag3672
ag2095
ag1743
ag3697
ag2535
ag2656
ag2844
ag4970
ag4753
ag5131
ag4403
ag558
ag2326
ag1657
ag2605
ag1662
ag2185
ag1687
ag1677
ag5067
ag4586
ag517
ag2121
ag2649
ag535
ag1266
ag4405
ag1338
ag1697
ag3383
ag3054
ag430
ag4351
ag4577
ag4965
ag3281
ag1971
ag3494
ag780
ag2819
ag4195
ag3989
ag1628
ag1845
ag3288
ag3316
ag2921
ag1275
ag2459
ag613
ag4772
ag1390
ag2324
ag2463
ag5035
ag1982
ag1324
ag5200
ag3380
ag4944
ag1276
ag2018
ag2486
ag1963
ag3173
ag3323
ag2926
ag371
ag2113
ag5221
ag1512
ag4506
ag1346
ag392
ag2438
ag1737
ag826
ag3830
ag2711
ag4312
ag1041
ag62
ag4136
ag3696
ag3503
ag3271
ag131
ag4116
ag312
ag190
ag3978
ag5239
ag4248
ag4977
ag5033
ag1490
ag5003
ag1205
ag822
ag334
ag1010
ag1061
ag3343
ag3294
ag4748
ag4804
ag1858
ag2758
ag1525
ag3779
ag627
ag568
ag3673
ag5227
ag2495
ag1882
ag2683
ag1841
ag1168
ag1668
ag3626
ag2157
ag2054
ag1852
ag3916
ag2851
ag1772
ag2129
ag1074
ag2001
ag4764
ag801
ag3120
ag3524
ag4624
ag2828
ag330
ag4159
ag955
ag477
ag3440
ag1102
ag3497
ag4923
ag3226
ag2845
ag5145
ag3998
ag4566
ag329
ag3939
ag3283
ag871
ag625
ag1551
ag1577
ag2600
ag4491
ag4327
ag2473
ag5034
ag5105
ag4091
ag1857
ag4831
ag5254
ag3792
ag4429
ag304
ag2296
ag1565
ag2089
ag4052
ag1340
ag3786
ag336
ag894
ag4710
ag4367
ag3619
ag2991
ag4985
ag2391
ag1333
ag1999
ag747
ag5161
ag307
ag2769
ag3845
ag3589
ag1987
ag3912
ag4856
ag563
ag4088
ag4914
ag59
ag4143
ag5013
ag4673
ag32
ag3430
ag3235
ag3133
ag3356
ag1068
ag4414
ag4849
ag1806
ag4681
ag1905
ag3486
ag4948
ag100
ag811
ag2305
ag4715
ag2726
ag2189
ag1495
ag953
ag4828
ag2563
ag2777
ag819
ag238
ag5292
ag4564
ag4773
ag2996
ag4111
ag4297
ag2458
ag129
ag4651
ag5120
ag3776
ag1212
ag1075
ag2457
ag3675
ag4277
ag2091
ag3803
ag4299
ag3060
ag1402
ag5303
ag2992
ag1106
ag2194
ag4360
ag4343
ag4814
ag2203
ag435
ag3171
ag2450
ag353
ag2634
ag561
ag4187
ag4626
ag499
ag210
ag1900
ag1244
ag4310
ag4097
ag1297
ag3464
ag5237
ag4228
ag745
ag144
ag3564
ag1621
ag4940
ag4549
ag2248
ag1261
ag2136
ag2149
ag3225
ag64
ag4871
ag4607
ag1819
ag3857
ag1988
ag2974
ag3895
ag3884
ag814
ag3930
ag758
ag1125
ag798
ag2595
ag2662
ag4672
ag2955
ag4976
ag1709
ag3445
ag3003
ag3266
ag3539
ag3861
ag178
ag3140
ag3449
ag226
ag269
ag553
ag1684
ag4237
ag1784
ag644
ag2431
ag1713
ag5044
ag5162
ag3591
ag3964
ag4918
ag2666
ag5082
ag3770
ag684
ag3937
ag3295
ag3850
ag5309
ag4927
ag1037
ag4460
ag3107
ag4070
ag5039
ag1424
ag1038
ag2379
ag2961
ag1131
ag1881
ag3914
ag1410
ag2907
ag1966
ag929
ag168
ag4861
ag4106
ag509
ag372
ag1215
ag1350
ag4952
ag1376
ag1581
ag2231
ag2676
ag538
ag4609
ag2423
ag698
ag4632
ag4836
ag2492
ag4888
ag1257
ag235
ag300
ag4222
ag4587
ag4726
ag5060
ag2957
ag5127
ag792
ag4685
ag424
ag3680
ag3390
ag3184
ag759
ag4358
ag41
ag3873
ag2460
ag2085
ag3968
ag2838
ag473
ag4050
ag677
ag3744
ag2571
ag4316
ag2443
ag4325
ag3047
ag5146
ag1897
ag3032
ag911
ag5236
ag3976
ag68
ag4567
ag4180
ag4261
ag4427
ag4337
ag2283
ag4269
ag1894
ag2325
ag2679
ag4388
ag1691
ag3113
ag1957
ag5128
ag4711
ag428
ag941
ag3750
ag5063
ag1259
ag2177
ag2252
ag4459
ag4161
ag5122
ag53
ag5053
ag3220
ag4867
ag3104
ag4502
ag485
ag2831
ag3506
ag5205
ag4538
ag864
ag785
ag18
ag2723
ag5022
ag3709
ag445
ag2501
ag3973
ag1360
ag2835
ag2404
ag3746
ag360
ag1614
ag4611
ag1112
ag5004
ag3155
ag2751
ag713
ag63
ag4998
ag2842
ag1674
ag4540
ag4090
ag861
ag1100
ag4559
ag1331
ag2938
ag3483
ag2858
ag3832
ag856
ag2898
ag201
ag1835
ag81
ag3723
ag4374
ag2904
ag2244
ag2770
ag2053
ag128
ag4889
ag670
ag1437
ag969
ag500
ag1243
ag1868
ag12
ag1516
ag1154
ag2057
ag573
ag3847
ag3189
ag525
ag3496
ag3796
ag851
ag3558
ag579
ag3900
ag3315
ag5132
ag3644
ag4505
ag4424
ag1705
ag2166
ag3159
ag3097
ag2401
ag2867
ag3628
ag4550
ag2398
ag2718
ag2293
ag3152
ag3957
ag399
ag5032
ag5293
ag4378
ag2474
ag1829
ag345
ag4335
ag3357
ag463
ag1521
ag1152
ag5312
ag4953
ag799
ag2435
ag3667
ag3484
ag4730
ag4008
ag5148
ag4457
ag889
ag692
ag4821
ag3458
ag2182
ag918
ag467
ag264
ag4966
ag74
ag1746
ag2568
ag3559
ag4331
ag3103
ag2767
ag130
ag3403
ag2973
ag180
ag4763
ag1733
ag3329
ag2685
ag666
ag848
ag4618
ag5176
ag1727
ag2174
ag4581
ag49
ag1585
ag211
ag4858
ag3457
ag585
ag3877
ag5029
ag1914
ag3182
ag2732
ag3468
ag501
ag2636
ag532
ag4619
ag4605
ag2517
ag3043
ag636
ag3693
ag3306
ag771
ag2708
ag1176
ag3502
ag1455
ag4247
ag835
ag3728
ag4191
ag3598
ag3578
ag2682
ag1500
ag2061
ag2036
ag2670
ag174
ag1221
ag776
ag706
ag653
ag2651
ag1842
ag1889
ag327
ag2297
ag5209
ag2020
ag701
ag3178
ag3534
ag1814
ag118
ag4468
ag718
ag908
ag2688
ag1448
ag3275
ag2400
ag4522
ag4092
ag368
ag1251
ag1912
ag2609
ag2852
ag4499
ag3194
ag47
ag4800
ag2865
ag493
ag4807
ag2519
ag2269
ag2000
ag5026
ag344
ag14
ag2684
ag3818
ag2467
ag3037
ag2922
ag4235
ag4430
ag2306
ag4489
ag650
ag950
ag1866
ag1496
ag3451
ag2994
ag2773
ag598
ag3143
ag3409
ag3509
ag3434
ag3570
ag4795
ag1676
ag769
ag2027
ag4815
ag2045
ag1504
ag3634
ag3625
ag883
ag4471
ag3391
ag2272
ag1752
ag2733
ag268
ag4516
ag3931
ag427
ag2083
ag1293
ag3002
ag223
ag5251
ag224
ag5121
ag4528
ag3146
ag3261
ag2958
ag2516
ag726
ag5180
ag5173
ag5000
ag4396
ag3049
ag1288
ag524
ag767
ag3280
ag3643
ag2380
ag3277
ag1421
ag4185
ag4723
ag3631
ag1816
ag1821
ag5124
ag1444
ag362
ag3372
ag4784
ag1143
ag1588
ag515
ag5252
ag2412
ag3674
ag245
ag5233
ag4865
ag3817
ag2594
ag2167
ag1935
ag2597
ag373
ag3204
ag4259
ag2044
ag2344
ag1559
ag2724
ag744
ag914
ag4631
ag2303
ag4330
ag721
ag4071
ag3936
ag640
ag1949
ag938
ag4134
ag2739
ag393
ag1947
ag1938
ag652
ag973
ag4166
ag2514
ag369
ag2944
ag4487
ag5087
ag3363
ag1543
ag4496
ag516
ag3613
ag3255
ag2914
ag2477
ag2801
ag1086
ag2810
ag1549
ag3362
ag1415
ag2857
ag2664
ag3044
ag1482
ag2829
ag5262
ag88
ag4518
ag2299
ag426
ag1192
ag5185
ag3200
ag4014
ag4557
ag1972
ag1066
ag3344
ag3446
ag3858
ag586
ag3599
ag584
ag4029
ag2382
ag3879
ag2761
ag5295
ag3335
ag3307
ag2628
ag85
ag4352
ag3574
ag1315
ag1602
ag3529
ag4666
ag1832
ag984
ag4286
ag2654
ag903
ag1873
ag171
ag4671
ag309
ag414
ag261
ag4758
ag510
ag595
ag1463
ag4112
ag1680
ag4500
ag2388
ag2780
ag4440
ag4253
ag2048
ag5300
ag3293
ag306
ag3898
ag2433
ag1685
ag2268
ag1094
ag2934
ag1149
ag1240
ag231
ag2414
ag4224
ag2710
ag750
ag4991
ag3282
ag4535
ag1508
ag913
ag3222
ag359
ag133
ag5299
ag4774
ag1961
ag3092
ag2034
ag3126
ag3515
ag1967
ag5064
ag479
ag1720
ag2021
ag3369
ag2229
ag2993
ag3683
ag212
ag1403
ag3117
ag3642
ag3340
ag1357
ag1371
ag1524
ag5172
ag1370
ag2370
ag1770
ag2826
ag4453
ag406
ag2793
ag1762
ag3789
ag5081
ag3761
ag1119
ag5228
ag1632
ag1228
ag3066
ag2112
ag1670
ag3531
ag1859
ag2687
ag847
ag511
ag3593
ag2281
ag2790
ag3948
ag4200
ag1092
ag2896
ag1923
ag2967
ag2131
ag4809
ag741
ag3238
ag2480
ag2333
ag3612
ag2093
ag3234
ag486
ag5171
ag3604
ag1277
ag1529
ag1550
ag1648
ag3364
ag714
ag4812
ag694
ag1174
ag4862
ag456
ag1824
ag2420
ag146
ag4307
ag4840
ag3208
ag4876
ag2509
ag1812
ag2987
ag4612
ag1211
ag945
ag4419
ag2928
ag1394
ag601
ag4674
ag3262
ag567
ag569
ag4308
ag70
ag999
ag2869
ag3783
ag2289
ag1079
ag3087
ag1206
ag2378
ag1556
ag2824
ag3654
ag751
ag578
ag2237
ag4273
ag2181
ag5204
ag1885
ag207
ag3720
ag5051
ag4488
ag4030
ag4819
ag4664
ag4456
ag2035
ag4087
ag2638
ag1774
ag1039
ag2171
ag1950
ag2889
ag1634
ag4428
ag4139
ag2927
ag1268
ag1058
ag3815
ag3160
ag40
ag1862
ag2372
ag1605
ag4925
ag868
ag2361
ag4572
ag4103
ag671
ag181
ag1834
ag105
ag1915
ag2273
ag536
ag2028
ag5070
ag5217
ag1017
ag2933
ag2104
ag2592
ag2512
ag846
ag4289
ag318
ag2235
ag2825
ag4186
ag3353
ag2553
ag5304
ag3545
ag1200
ag4781
ag4527
ag1306
ag3028
ag3082
ag4212
ag1156
ag2937
ag2111
ag2472
ag2316
ag5288
ag2008
ag4278
ag3828
ag1090
ag5129
ag2876
ag1060
ag2964
ag2425
ag1408
ag1695
ag474
ag321
ag8
ag1312
ag4536
ag2854
ag2789
ag696
ag3088
ag3360
ag5199
ag293
ag3428
ag5232
ag3202
ag4380
ag3597
ag2483
ag793
ag1175
ag382
ag2925
ag3556
ag1000
ag1594
ag1839
ag3273
ag147
ag753
ag1334
ag2548
ag1089
ag196
ag3637
ag354
ag1386
ag662
ag827
ag2262
ag1880
ag3374
ag4084
ag3585
ag1911
ag458
ag230
ag2655
ag1513
ag4033
ag3656
ag634
ag3721
ag3757
ag2589
ag2815
ag3756
ag2172
ag4279
ag1650
ag4509
ag1015
ag1380
ag4140
ag712
ag1554
ag3837
ag1887
ag4075
ag1623
ag4205
ag3359
ag3221
ag902
ag647
ag4695
ag4669
ag84
ag104
ag797
ag4219
ag5183
ag4472
ag4742
ag1974
ag2338
ag3480
ag1979
ag3163
ag1656
ag1767
ag3729
ag5184
ag551
ag2304
ag2319
ag1631
ag305
ag1604
ag342
ag413
ag1710
ag961
ag4827
ag1035
ag185
ag2204
ag3816
ag462
ag3773
ag1548
ag1530
ag4519
ag3079
ag3040
ag4322
ag1185
ag4845
ag1139
ag1438
ag4721
ag2721
ag1968
ag1213
ag3274
ag2871
ag1671
ag4650
ag3594
ag4234
ag2965
ag1672
ag4281
ag2893
ag3798
ag641
ag2731
ag1392
ag4661
ag2133
ag2387
ag2009
ag4546
ag4069
ag4839
ag3419
ag3670
ag4265
ag1416
ag3422
ag1541
ag50
ag2278
ag1557
ag2579
ag974
ag4771
ag4280
ag198
ag4060
ag587
ag2026
ag4778
ag4882
ag4290
ag4410
ag4765
ag3172
ag3038
ag2421
ag3443
ag1601
ag4949
ag987
ag3863
ag2800
ag1291
ag1378
ag2895
ag2874
ag1483
ag1400
ag1769
ag4105
ag588
ag5152
ag629
ag1666
ag388
ag720
ag2936
ag4202
ag2397
ag367
ag229
ag1790
ag1925
ag2549
ag3546
ag194
ag2659
ag2763
ag380
ag4083
ag1198
ag505
ag4288
ag2245
ag1280
ag3355
ag1009
ag4238
ag5229
ag1706
ag3702
ag3928
ag2098
ag2984
ag1161
ag2505
ag565
ag3177
ag1136
ag451
ag3185
ag1027
ag3460
ag1469
ag836
ag4860
ag3014
ag3438
ag495
ag1754
ag5107
ag4913
ag4579
ag4305
ag1330
ag2385
ag4442
ag257
ag4418
ag2075
ag2720
ag4094
ag2437
ag3944
ag621
ag113
ag4969
ag807
ag4905
ag3623
ag3317
ag2886
ag3011
ag2633
ag4834
ag1095
ag4974
ag3116
ag4686
ag2497
ag1431
ag2179
ag2736
ag3507
ag333
ag791
ag1188
ag2908
ag4575
ag5257
ag4100
ag2680
ag544
ag1097
ag1361
ag2183
ag422
ag2407
ag1171
ag4560
ag2506
ag4086
ag523
ag415
ag5021
ag1808
ag2536
ag1130
ag3550
ag5181
ag1123
ag48
ag4274
ag1924
ag1471
ag1304
ag1778
ag2856
ag1675
ag4096
ag4846
ag3790
ag3510
ag2217
ag2236
ag3951
ag1506
ag433
ag5190
ag2881
ag4452
ag2604
ag1533
ag4659
ag2335
ag3955
ag4731
ag4398
ag4074
ag4683
ag3267
ag1566
ag3420
ag3768
ag618
ag2593
ag2807
ag4588
ag1932
ag3942
ag4025
ag1239
ag444
ag2422
ag665
ag514
ag2327
ag1414
ag4508
ag4503
ag4653
ag5253
ag323
ag5287
ag3940
ag2981
ag4637
ag2822
ag33
ag4377
ag2065
ag4617
ag1422
ag1883
ag2418
ag3636
ag4372
ag3175
ag1021
ag39
ag2963
ag977
ag2165
ag2156
ag4744
ag2276
ag5273
ag4787
ag4296
ag3078
ag1899
ag1890
ag1427
ag425
ag705
ag3775
ag242
ag832
ag176
ag4801
ag4937
ag3063
ag385
ag1157
ag1547
ag3130
ag2665
ag2753
ag4584
ag3128
ag1062
ag447
ag1804
ag439
ag674
ag2066
ag3740
ag833
ag4610
ag2168
ag4148
ag2210
ag4412
ag1419
ag3924
ag4627
ag25
ag13
ag44
ag4553
ag4958
ag4155
ag1487
ag234
ag576
ag3272
ag5023
ag5155
ag5240
ag3925
ag1367
ag11
ag195
ag3109
ag199
ag2170
ag3665
ag3704
ag4465
ag3661
ag2329
ag675
ag3418
ag3042
ag1292
ag352
ag2833
ag2436
ag4423
ag3472
ag361
ag4225
ag4113
ag5278
ag3525
ag2031
ag1230
ag876
ag135
ag1429
ag1573
ag2022
ag2798
ag808
ag3233
ag1382
ag2847
ag3995
ag3313
ag423
ag295
ag1001
ag4857
ag626
ag2611
ag4745
ag191
ag4892
ag2230
ag4591
ag571
ag2067
ag3984
ag3705
ag3760
ag521
ag3304
ag3833
ag2046
ag4359
ag1374
ag4407
ag4258
ag935
ag2368
ag1053
ag3376
ag1540
ag1717
ag3835
ag3086
ag1664
ag2221
ag5208
ag3538
ag420
ag483
ag2954
ag3905
ag3284
ag1407
ag4543
ag1493
ag1826
ag746
ag2240
ag3064
ag4282
ag2632
ag2206
ag2870
ag2227
ag1196
ag5074
ag3015
ag5114
ag2956
ag4081
ag1319
ag4389
ag1222
ag4158
ag2395
ag1252
ag2543
ag4598
ag4994
ag1626
ag540
ag541
ag3425
ag249
ag1480
ag4449
ag4057
ag1190
ag729
ag3568
ag2011
ag5301
ag762
ag3006
ag3632
ag4171
ag2504
ag1953
ag2042
ag283
ag688
ag1179
ag1284
ag1225
ag391
ag1314
ag2728
ag4490
ag3102
ag4984
ag3934
ag2356
ag580
ag3622
ag5056
ag4805
ag1877
ag539
ag4954
ag2787
ag3580
ag38
ag2476
ag4941
ag2123
ag4737
ag1031
ag966
ag2855
ag2714
ag4734
ag1997
ag1635
ag1301
ag4107
ag179
ag1505
ag276
ag2672
ag4217
ag2786
ag985
ag4369
ag2461
ag2279
ag1869
ag3749
ag2498
ag4642
ag3969
ag2581
ag3270
ag3865
ag4899
ag2070
ag253
ag4230
ag3287
ag5247
ag65
ag4719
ag1716
ag867
ag859
ag3715
ag1534
ag5245
ag4757
ag2417
ag4363
ag4938
ag4616
ag4190
ag3781
ag42
ag1219
ag326
ag182
ag1976
ag4544
ag2381
ag3332
ag2097
ag93
ag817
ag3805
ag3433
ag2119
ag943
ag3588
ag5164
ag1730
ag1688
ag4705
ag4738
ag1002
ag2643
ag4439
ag4613
ag1366
ag1016
ag5163
ag5302
ag3952
ag2742
ag4262
ag1295
ag3621
ag4336
ag2765
ag1296
ag338
ag2813
ag1307
ag4980
ag2528
ag2080
ag4309
ag4634
ag4750
ag1128
ag3745
ag1655
ag4373
ag4203
ag3692
ag1989
ag947
ag1818
ag2630
ag581
ag3065
ag3411
ag537
ag3590
ag2747
ag3342
ag3361
ag3334
ag849
ag761
ag3853
ag1872
ag4636
ag2715
ag378
ag2087
ag3824
ag1570
ag4314
ag449
ag3533
ag1625
ag464
ag2507
ag2158
ag1660
ag2280
ag5092
ag4121
ag5123
ag3414
ag5117
ag4824
ag1147
ag4713
ag1322
ag5138
ag2520
ag5098
ag2970
ag35
ag3897
ag4119
ag3551
ag844
ag3880
ag4898
ag1886
ag2485
ag389
ag5027
ag3854
ag1120
ag2141
ag1077
ag2866
ag3694
ag4597
ag1558
ag204
ag3398
ag839
ag2812
ag1033
ag3489
ag2328
ag1137
ag3872
ag3170
ag4193
ag158
ag5111
ag2308
ag1393
ag1423
ag2346
ag5202
ag3808
ag2897
ag531
ag2582
ag2309
ag1888
ag2719
ag3429
ag5110
asS'separator'
p5321
S'='
p5322
sS'sparse'
p5323
I01
sb.